ARM GAS  /tmp/cco9LWb0.s 			page 1


   1              		.cpu cortex-m3
   2              		.arch armv7-m
   3              		.fpu softvfp
   4              		.eabi_attribute 20, 1
   5              		.eabi_attribute 21, 1
   6              		.eabi_attribute 23, 3
   7              		.eabi_attribute 24, 1
   8              		.eabi_attribute 25, 1
   9              		.eabi_attribute 26, 1
  10              		.eabi_attribute 30, 1
  11              		.eabi_attribute 34, 1
  12              		.eabi_attribute 18, 4
  13              		.file	"app.c"
  14              		.text
  15              	.Ltext0:
  16              		.cfi_sections	.debug_frame
  17              		.section	.rodata.app.str1.4,"aMS",%progbits,1
  18              		.align	2
  19              	.LC0:
  20 0000 48617264 		.ascii	"Hardware is started...\012\000"
  20      77617265 
  20      20697320 
  20      73746172 
  20      7465642E 
  21              		.align	2
  22              	.LC1:
  23 0018 4C202564 		.ascii	"L %d\011\011\011R%d\012\000"
  23      09090952 
  23      25640A00 
  24              		.section	.text.app,"ax",%progbits
  25              		.align	1
  26              		.global	app
  27              		.syntax unified
  28              		.thumb
  29              		.thumb_func
  31              	app:
  32              	.LFB68:
  33              		.file 1 "App/Src/app.c"
   1:App/Src/app.c **** #include "app.h"
   2:App/Src/app.c **** #include "stdbool.h"
   3:App/Src/app.c **** #include "main.h"
   4:App/Src/app.c **** #include "uart_app.h"
   5:App/Src/app.c **** #include "tim.h"
   6:App/Src/app.c **** #include "drive.h"
   7:App/Src/app.c **** #include "string.h"
   8:App/Src/app.c **** #include "stdio.h"
   9:App/Src/app.c **** #define command_size 32
  10:App/Src/app.c **** 
  11:App/Src/app.c **** uint8_t command[command_size] = {0};
  12:App/Src/app.c **** bool flag = false;
  13:App/Src/app.c **** uint32_t val;
  14:App/Src/app.c **** static struct drive drv_l, drv_r;
  15:App/Src/app.c **** 
  16:App/Src/app.c **** void app()
  17:App/Src/app.c **** {
  34              		.loc 1 17 1 view -0
  35              		.cfi_startproc
ARM GAS  /tmp/cco9LWb0.s 			page 2


  36              		@ args = 0, pretend = 0, frame = 64
  37              		@ frame_needed = 0, uses_anonymous_args = 0
  38 0000 30B5     		push	{r4, r5, lr}
  39              	.LCFI0:
  40              		.cfi_def_cfa_offset 12
  41              		.cfi_offset 4, -12
  42              		.cfi_offset 5, -8
  43              		.cfi_offset 14, -4
  44 0002 97B0     		sub	sp, sp, #92
  45              	.LCFI1:
  46              		.cfi_def_cfa_offset 104
  18:App/Src/app.c ****     uart_send_mes("Hardware is started...\n", 100);
  47              		.loc 1 18 5 view .LVU1
  48 0004 6421     		movs	r1, #100
  49 0006 2148     		ldr	r0, .L4
  50 0008 FFF7FEFF 		bl	uart_send_mes
  51              	.LVL0:
  19:App/Src/app.c ****     uart_ask_str_IT(command);
  52              		.loc 1 19 5 view .LVU2
  53 000c 2048     		ldr	r0, .L4+4
  54 000e FFF7FEFF 		bl	uart_ask_str_IT
  55              	.LVL1:
  20:App/Src/app.c **** 
  21:App/Src/app.c ****     drive_init(
  56              		.loc 1 21 5 view .LVU3
  57 0012 4FF4C855 		mov	r5, #6400
  58 0016 0595     		str	r5, [sp, #20]
  59 0018 0A23     		movs	r3, #10
  60 001a 0493     		str	r3, [sp, #16]
  61 001c 4FF48063 		mov	r3, #1024
  62 0020 0393     		str	r3, [sp, #12]
  63 0022 1C4C     		ldr	r4, .L4+8
  64 0024 0294     		str	r4, [sp, #8]
  65 0026 0223     		movs	r3, #2
  66 0028 0193     		str	r3, [sp, #4]
  67 002a 0094     		str	r4, [sp]
  68 002c 0823     		movs	r3, #8
  69 002e 1A4A     		ldr	r2, .L4+12
  70 0030 0021     		movs	r1, #0
  71 0032 1A48     		ldr	r0, .L4+16
  72 0034 FFF7FEFF 		bl	drive_init
  73              	.LVL2:
  22:App/Src/app.c ****         &drv_l,
  23:App/Src/app.c ****         left,
  24:App/Src/app.c ****         &htim4,
  25:App/Src/app.c ****         TIM_CHANNEL_3,
  26:App/Src/app.c ****         ENA_DRV_L_GPIO_Port,
  27:App/Src/app.c ****         ENA_DRV_L_Pin,
  28:App/Src/app.c ****         DIR_DRV_L_GPIO_Port,
  29:App/Src/app.c ****         DIR_DRV_L_Pin,
  30:App/Src/app.c ****         10,
  31:App/Src/app.c ****         6400);
  32:App/Src/app.c **** 
  33:App/Src/app.c ****     drive_init(
  74              		.loc 1 33 5 view .LVU4
  75 0038 0595     		str	r5, [sp, #20]
  76 003a 0323     		movs	r3, #3
ARM GAS  /tmp/cco9LWb0.s 			page 3


  77 003c 0493     		str	r3, [sp, #16]
  78 003e 4FF40073 		mov	r3, #512
  79 0042 0393     		str	r3, [sp, #12]
  80 0044 0294     		str	r4, [sp, #8]
  81 0046 4FF40063 		mov	r3, #2048
  82 004a 0193     		str	r3, [sp, #4]
  83 004c 144B     		ldr	r3, .L4+20
  84 004e 0093     		str	r3, [sp]
  85 0050 0423     		movs	r3, #4
  86 0052 144A     		ldr	r2, .L4+24
  87 0054 0021     		movs	r1, #0
  88 0056 1448     		ldr	r0, .L4+28
  89 0058 FFF7FEFF 		bl	drive_init
  90              	.LVL3:
  34:App/Src/app.c ****         &drv_r,
  35:App/Src/app.c ****         left,
  36:App/Src/app.c ****         &htim3,
  37:App/Src/app.c ****         TIM_CHANNEL_2,
  38:App/Src/app.c ****         ENA_DRV_R_GPIO_Port,
  39:App/Src/app.c ****         ENA_DRV_R_Pin,
  40:App/Src/app.c ****         DIR_DRV_R_GPIO_Port,
  41:App/Src/app.c ****         DIR_DRV_R_Pin,
  42:App/Src/app.c ****         3,
  43:App/Src/app.c ****         6400);
  44:App/Src/app.c **** 
  45:App/Src/app.c ****     int16_t i = 500;
  91              		.loc 1 45 5 view .LVU5
  46:App/Src/app.c ****     uint8_t buffer[64];
  92              		.loc 1 46 5 view .LVU6
  47:App/Src/app.c ****     HAL_TIM_Base_Start_IT(&htim2);
  93              		.loc 1 47 5 view .LVU7
  94 005c 1348     		ldr	r0, .L4+32
  95 005e FFF7FEFF 		bl	HAL_TIM_Base_Start_IT
  96              	.LVL4:
  97              	.L2:
  48:App/Src/app.c **** 
  49:App/Src/app.c ****     while (true)
  98              		.loc 1 49 5 discriminator 1 view .LVU8
  50:App/Src/app.c ****     {
  51:App/Src/app.c ****         HAL_GPIO_TogglePin(LED_GPIO_Port, LED_Pin);
  99              		.loc 1 51 9 discriminator 1 view .LVU9
 100 0062 4FF40051 		mov	r1, #8192
 101 0066 1248     		ldr	r0, .L4+36
 102 0068 FFF7FEFF 		bl	HAL_GPIO_TogglePin
 103              	.LVL5:
  52:App/Src/app.c ****         sprintf(buffer, "L %d\t\t\tR%d\n", drv_l.current_speed, drv_r.current_speed);
 104              		.loc 1 52 9 discriminator 1 view .LVU10
 105 006c 0E4B     		ldr	r3, .L4+28
 106 006e 9B68     		ldr	r3, [r3, #8]
 107 0070 0A4A     		ldr	r2, .L4+16
 108 0072 9268     		ldr	r2, [r2, #8]
 109 0074 0F49     		ldr	r1, .L4+40
 110 0076 06A8     		add	r0, sp, #24
 111 0078 FFF7FEFF 		bl	sprintf
 112              	.LVL6:
  53:App/Src/app.c ****         uart_send_mes_IT(buffer);
 113              		.loc 1 53 9 discriminator 1 view .LVU11
ARM GAS  /tmp/cco9LWb0.s 			page 4


 114 007c 06A8     		add	r0, sp, #24
 115 007e FFF7FEFF 		bl	uart_send_mes_IT
 116              	.LVL7:
  54:App/Src/app.c ****         HAL_Delay(100);
 117              		.loc 1 54 9 discriminator 1 view .LVU12
 118 0082 6420     		movs	r0, #100
 119 0084 FFF7FEFF 		bl	HAL_Delay
 120              	.LVL8:
  49:App/Src/app.c ****     {
 121              		.loc 1 49 11 discriminator 1 view .LVU13
 122 0088 EBE7     		b	.L2
 123              	.L5:
 124 008a 00BF     		.align	2
 125              	.L4:
 126 008c 00000000 		.word	.LC0
 127 0090 00000000 		.word	.LANCHOR0
 128 0094 00080140 		.word	1073809408
 129 0098 00000000 		.word	htim4
 130 009c 00000000 		.word	.LANCHOR1
 131 00a0 000C0140 		.word	1073810432
 132 00a4 00000000 		.word	htim3
 133 00a8 00000000 		.word	.LANCHOR2
 134 00ac 00000000 		.word	htim2
 135 00b0 00100140 		.word	1073811456
 136 00b4 18000000 		.word	.LC1
 137              		.cfi_endproc
 138              	.LFE68:
 140              		.section	.rodata.uart_str_RxCPLTCallback.str1.4,"aMS",%progbits,1
 141              		.align	2
 142              	.LC2:
 143 0000 2000     		.ascii	" \000"
 144 0002 0000     		.align	2
 145              	.LC3:
 146 0004 77686F61 		.ascii	"whoareyou\000"
 146      7265796F 
 146      7500
 147 000e 0000     		.align	2
 148              	.LC4:
 149 0010 64726976 		.ascii	"drives\012\000"
 149      65730A00 
 150              		.align	2
 151              	.LC5:
 152 0018 73746172 		.ascii	"start\000"
 152      7400
 153 001e 0000     		.align	2
 154              	.LC6:
 155 0020 53544152 		.ascii	"START\000"
 155      5400
 156 0026 0000     		.align	2
 157              	.LC7:
 158 0028 73746F70 		.ascii	"stop\000"
 158      00
 159 002d 000000   		.align	2
 160              	.LC8:
 161 0030 53544F50 		.ascii	"STOP\000"
 161      00
 162 0035 000000   		.align	2
ARM GAS  /tmp/cco9LWb0.s 			page 5


 163              	.LC9:
 164 0038 7200     		.ascii	"r\000"
 165 003a 0000     		.align	2
 166              	.LC10:
 167 003c 5200     		.ascii	"R\000"
 168 003e 0000     		.align	2
 169              	.LC11:
 170 0040 6C00     		.ascii	"l\000"
 171 0042 0000     		.align	2
 172              	.LC12:
 173 0044 4C00     		.ascii	"L\000"
 174              		.section	.text.uart_str_RxCPLTCallback,"ax",%progbits
 175              		.align	1
 176              		.global	uart_str_RxCPLTCallback
 177              		.syntax unified
 178              		.thumb
 179              		.thumb_func
 181              	uart_str_RxCPLTCallback:
 182              	.LFB69:
  55:App/Src/app.c ****     }
  56:App/Src/app.c **** }
  57:App/Src/app.c **** 
  58:App/Src/app.c **** void uart_str_RxCPLTCallback()
  59:App/Src/app.c **** {
 183              		.loc 1 59 1 view -0
 184              		.cfi_startproc
 185              		@ args = 0, pretend = 0, frame = 48
 186              		@ frame_needed = 0, uses_anonymous_args = 0
 187 0000 10B5     		push	{r4, lr}
 188              	.LCFI2:
 189              		.cfi_def_cfa_offset 8
 190              		.cfi_offset 4, -8
 191              		.cfi_offset 14, -4
 192 0002 8CB0     		sub	sp, sp, #48
 193              	.LCFI3:
 194              		.cfi_def_cfa_offset 56
  60:App/Src/app.c **** 
  61:App/Src/app.c ****     uint8_t *word_arr[10];
 195              		.loc 1 61 5 view .LVU15
  62:App/Src/app.c ****     uint8_t *word;
 196              		.loc 1 62 5 view .LVU16
  63:App/Src/app.c ****     uint8_t i = 0;
 197              		.loc 1 63 5 view .LVU17
 198              	.LVL9:
  64:App/Src/app.c ****     volatile int32_t vel = 0;
 199              		.loc 1 64 5 view .LVU18
 200              		.loc 1 64 22 is_stmt 0 view .LVU19
 201 0004 0024     		movs	r4, #0
 202 0006 0194     		str	r4, [sp, #4]
  65:App/Src/app.c ****     struct drive *cur_d = NULL;
 203              		.loc 1 65 5 is_stmt 1 view .LVU20
 204              	.LVL10:
  66:App/Src/app.c ****     word = strtok(command, " ");
 205              		.loc 1 66 5 view .LVU21
 206              		.loc 1 66 12 is_stmt 0 view .LVU22
 207 0008 3649     		ldr	r1, .L20
 208 000a 3748     		ldr	r0, .L20+4
ARM GAS  /tmp/cco9LWb0.s 			page 6


 209 000c FFF7FEFF 		bl	strtok
 210              	.LVL11:
  67:App/Src/app.c ****     while (word != NULL)
 211              		.loc 1 67 5 is_stmt 1 view .LVU23
 212              		.loc 1 67 11 is_stmt 0 view .LVU24
 213 0010 0AE0     		b	.L7
 214              	.LVL12:
 215              	.L8:
  68:App/Src/app.c ****     {
  69:App/Src/app.c ****         word_arr[i] = word;
 216              		.loc 1 69 9 is_stmt 1 view .LVU25
 217              		.loc 1 69 21 is_stmt 0 view .LVU26
 218 0012 0CAB     		add	r3, sp, #48
 219 0014 03EB8403 		add	r3, r3, r4, lsl #2
 220 0018 43F8280C 		str	r0, [r3, #-40]
  70:App/Src/app.c ****         i++;
 221              		.loc 1 70 9 is_stmt 1 view .LVU27
 222              		.loc 1 70 10 is_stmt 0 view .LVU28
 223 001c 0134     		adds	r4, r4, #1
 224              	.LVL13:
 225              		.loc 1 70 10 view .LVU29
 226 001e E4B2     		uxtb	r4, r4
 227              	.LVL14:
  71:App/Src/app.c ****         word = strtok(NULL, " ");
 228              		.loc 1 71 9 is_stmt 1 view .LVU30
 229              		.loc 1 71 16 is_stmt 0 view .LVU31
 230 0020 3049     		ldr	r1, .L20
 231 0022 0020     		movs	r0, #0
 232              	.LVL15:
 233              		.loc 1 71 16 view .LVU32
 234 0024 FFF7FEFF 		bl	strtok
 235              	.LVL16:
 236              	.L7:
  67:App/Src/app.c ****     {
 237              		.loc 1 67 11 is_stmt 1 view .LVU33
 238 0028 0028     		cmp	r0, #0
 239 002a F2D1     		bne	.L8
  72:App/Src/app.c ****     }
  73:App/Src/app.c ****     word_arr[i] = NULL;
 240              		.loc 1 73 5 view .LVU34
 241              		.loc 1 73 17 is_stmt 0 view .LVU35
 242 002c 0CAB     		add	r3, sp, #48
 243 002e 03EB8404 		add	r4, r3, r4, lsl #2
 244              	.LVL17:
 245              		.loc 1 73 17 view .LVU36
 246 0032 0023     		movs	r3, #0
 247 0034 44F8283C 		str	r3, [r4, #-40]
  74:App/Src/app.c **** 
  75:App/Src/app.c ****     if (strcmp(word_arr[0], "whoareyou") == 0)
 248              		.loc 1 75 5 is_stmt 1 view .LVU37
 249              		.loc 1 75 24 is_stmt 0 view .LVU38
 250 0038 029C     		ldr	r4, [sp, #8]
 251              		.loc 1 75 9 view .LVU39
 252 003a 2C49     		ldr	r1, .L20+8
 253 003c 2046     		mov	r0, r4
 254              	.LVL18:
 255              		.loc 1 75 9 view .LVU40
ARM GAS  /tmp/cco9LWb0.s 			page 7


 256 003e FFF7FEFF 		bl	strcmp
 257              	.LVL19:
 258              		.loc 1 75 8 view .LVU41
 259 0042 0028     		cmp	r0, #0
 260 0044 4AD0     		beq	.L19
 261              	.L9:
  76:App/Src/app.c ****     {
  77:App/Src/app.c ****         uart_send_mes_IT("drives\n");
  78:App/Src/app.c ****     }
  79:App/Src/app.c **** 
  80:App/Src/app.c ****     if (strcmp(word_arr[0], "start") == 0 || strcmp(word_arr[0], "START") == 0)
 262              		.loc 1 80 5 is_stmt 1 view .LVU42
 263              		.loc 1 80 9 is_stmt 0 view .LVU43
 264 0046 2A49     		ldr	r1, .L20+12
 265 0048 2046     		mov	r0, r4
 266 004a FFF7FEFF 		bl	strcmp
 267              	.LVL20:
 268              		.loc 1 80 8 view .LVU44
 269 004e 20B1     		cbz	r0, .L10
 270              		.loc 1 80 46 discriminator 1 view .LVU45
 271 0050 2849     		ldr	r1, .L20+16
 272 0052 2046     		mov	r0, r4
 273 0054 FFF7FEFF 		bl	strcmp
 274              	.LVL21:
 275              		.loc 1 80 43 discriminator 1 view .LVU46
 276 0058 28B9     		cbnz	r0, .L11
 277              	.L10:
  81:App/Src/app.c ****     {
  82:App/Src/app.c **** 
  83:App/Src/app.c ****         drive_on(&drv_l);
 278              		.loc 1 83 9 is_stmt 1 view .LVU47
 279 005a 2748     		ldr	r0, .L20+20
 280 005c FFF7FEFF 		bl	drive_on
 281              	.LVL22:
  84:App/Src/app.c ****         drive_on(&drv_r);
 282              		.loc 1 84 9 view .LVU48
 283 0060 2648     		ldr	r0, .L20+24
 284 0062 FFF7FEFF 		bl	drive_on
 285              	.LVL23:
 286              	.L11:
  85:App/Src/app.c ****     }
  86:App/Src/app.c ****     if (strcmp(word_arr[0], "stop") == 0 || strcmp(word_arr[0], "STOP") == 0)
 287              		.loc 1 86 5 view .LVU49
 288              		.loc 1 86 9 is_stmt 0 view .LVU50
 289 0066 2649     		ldr	r1, .L20+28
 290 0068 2046     		mov	r0, r4
 291 006a FFF7FEFF 		bl	strcmp
 292              	.LVL24:
 293              		.loc 1 86 8 view .LVU51
 294 006e 20B1     		cbz	r0, .L12
 295              		.loc 1 86 45 discriminator 1 view .LVU52
 296 0070 2449     		ldr	r1, .L20+32
 297 0072 2046     		mov	r0, r4
 298 0074 FFF7FEFF 		bl	strcmp
 299              	.LVL25:
 300              		.loc 1 86 42 discriminator 1 view .LVU53
 301 0078 28B9     		cbnz	r0, .L13
ARM GAS  /tmp/cco9LWb0.s 			page 8


 302              	.L12:
  87:App/Src/app.c ****     {
  88:App/Src/app.c **** 
  89:App/Src/app.c ****         drive_off(&drv_l);
 303              		.loc 1 89 9 is_stmt 1 view .LVU54
 304 007a 1F48     		ldr	r0, .L20+20
 305 007c FFF7FEFF 		bl	drive_off
 306              	.LVL26:
  90:App/Src/app.c ****         drive_off(&drv_r);
 307              		.loc 1 90 9 view .LVU55
 308 0080 1E48     		ldr	r0, .L20+24
 309 0082 FFF7FEFF 		bl	drive_off
 310              	.LVL27:
 311              	.L13:
  91:App/Src/app.c ****     }
  92:App/Src/app.c ****     if (strcmp(word_arr[0], "r") == 0 || (strcmp(word_arr[0], "R") == 0))
 312              		.loc 1 92 5 view .LVU56
 313              		.loc 1 92 9 is_stmt 0 view .LVU57
 314 0086 2049     		ldr	r1, .L20+36
 315 0088 2046     		mov	r0, r4
 316 008a FFF7FEFF 		bl	strcmp
 317              	.LVL28:
 318              		.loc 1 92 8 view .LVU58
 319 008e 20B1     		cbz	r0, .L14
 320              		.loc 1 92 43 discriminator 1 view .LVU59
 321 0090 1E49     		ldr	r1, .L20+40
 322 0092 2046     		mov	r0, r4
 323 0094 FFF7FEFF 		bl	strcmp
 324              	.LVL29:
 325              		.loc 1 92 39 discriminator 1 view .LVU60
 326 0098 38B9     		cbnz	r0, .L15
 327              	.L14:
 328              	.LBB2:
  93:App/Src/app.c ****     {
  94:App/Src/app.c **** 
  95:App/Src/app.c ****         vel = atoi(word_arr[1]);
 329              		.loc 1 95 9 is_stmt 1 view .LVU61
 330              		.loc 1 95 15 is_stmt 0 view .LVU62
 331 009a 0398     		ldr	r0, [sp, #12]
 332 009c FFF7FEFF 		bl	atoi
 333              	.LVL30:
 334              		.loc 1 95 13 view .LVU63
 335 00a0 0190     		str	r0, [sp, #4]
  96:App/Src/app.c ****         drive_set_vel(&drv_r, vel);
 336              		.loc 1 96 9 is_stmt 1 view .LVU64
 337 00a2 0199     		ldr	r1, [sp, #4]
 338 00a4 1548     		ldr	r0, .L20+24
 339 00a6 FFF7FEFF 		bl	drive_set_vel
 340              	.LVL31:
 341              	.L15:
 342              	.LBE2:
  97:App/Src/app.c ****     }
  98:App/Src/app.c ****     if (strcmp(word_arr[0], "l") == 0 || strcmp(word_arr[0], "L") == 0)
 343              		.loc 1 98 5 view .LVU65
 344              		.loc 1 98 9 is_stmt 0 view .LVU66
 345 00aa 1949     		ldr	r1, .L20+44
 346 00ac 2046     		mov	r0, r4
ARM GAS  /tmp/cco9LWb0.s 			page 9


 347 00ae FFF7FEFF 		bl	strcmp
 348              	.LVL32:
 349              		.loc 1 98 8 view .LVU67
 350 00b2 20B1     		cbz	r0, .L16
 351              		.loc 1 98 42 discriminator 1 view .LVU68
 352 00b4 1749     		ldr	r1, .L20+48
 353 00b6 2046     		mov	r0, r4
 354 00b8 FFF7FEFF 		bl	strcmp
 355              	.LVL33:
 356              		.loc 1 98 39 discriminator 1 view .LVU69
 357 00bc 38B9     		cbnz	r0, .L17
 358              	.L16:
 359              	.LBB3:
  99:App/Src/app.c ****     {
 100:App/Src/app.c ****         vel = atoi(word_arr[1]);
 360              		.loc 1 100 9 is_stmt 1 view .LVU70
 361              		.loc 1 100 15 is_stmt 0 view .LVU71
 362 00be 0398     		ldr	r0, [sp, #12]
 363 00c0 FFF7FEFF 		bl	atoi
 364              	.LVL34:
 365              		.loc 1 100 13 view .LVU72
 366 00c4 0190     		str	r0, [sp, #4]
 101:App/Src/app.c ****         drive_set_vel(&drv_l, vel);
 367              		.loc 1 101 9 is_stmt 1 view .LVU73
 368 00c6 0199     		ldr	r1, [sp, #4]
 369 00c8 0B48     		ldr	r0, .L20+20
 370 00ca FFF7FEFF 		bl	drive_set_vel
 371              	.LVL35:
 372              	.L17:
 373              	.LBE3:
 102:App/Src/app.c ****     }
 103:App/Src/app.c ****     command[0] = '\0';
 374              		.loc 1 103 5 view .LVU74
 375              		.loc 1 103 16 is_stmt 0 view .LVU75
 376 00ce 0648     		ldr	r0, .L20+4
 377 00d0 0023     		movs	r3, #0
 378 00d2 0370     		strb	r3, [r0]
 104:App/Src/app.c ****     uart_ask_str_IT(command);
 379              		.loc 1 104 5 is_stmt 1 view .LVU76
 380 00d4 FFF7FEFF 		bl	uart_ask_str_IT
 381              	.LVL36:
 105:App/Src/app.c **** }
 382              		.loc 1 105 1 is_stmt 0 view .LVU77
 383 00d8 0CB0     		add	sp, sp, #48
 384              	.LCFI4:
 385              		.cfi_remember_state
 386              		.cfi_def_cfa_offset 8
 387              		@ sp needed
 388 00da 10BD     		pop	{r4, pc}
 389              	.L19:
 390              	.LCFI5:
 391              		.cfi_restore_state
  77:App/Src/app.c ****     }
 392              		.loc 1 77 9 is_stmt 1 view .LVU78
 393 00dc 0E48     		ldr	r0, .L20+52
 394 00de FFF7FEFF 		bl	uart_send_mes_IT
 395              	.LVL37:
ARM GAS  /tmp/cco9LWb0.s 			page 10


 396 00e2 B0E7     		b	.L9
 397              	.L21:
 398              		.align	2
 399              	.L20:
 400 00e4 00000000 		.word	.LC2
 401 00e8 00000000 		.word	.LANCHOR0
 402 00ec 04000000 		.word	.LC3
 403 00f0 18000000 		.word	.LC5
 404 00f4 20000000 		.word	.LC6
 405 00f8 00000000 		.word	.LANCHOR1
 406 00fc 00000000 		.word	.LANCHOR2
 407 0100 28000000 		.word	.LC7
 408 0104 30000000 		.word	.LC8
 409 0108 38000000 		.word	.LC9
 410 010c 3C000000 		.word	.LC10
 411 0110 40000000 		.word	.LC11
 412 0114 44000000 		.word	.LC12
 413 0118 10000000 		.word	.LC4
 414              		.cfi_endproc
 415              	.LFE69:
 417              		.section	.text.HAL_TIM_PeriodElapsedCallback,"ax",%progbits
 418              		.align	1
 419              		.global	HAL_TIM_PeriodElapsedCallback
 420              		.syntax unified
 421              		.thumb
 422              		.thumb_func
 424              	HAL_TIM_PeriodElapsedCallback:
 425              	.LVL38:
 426              	.LFB70:
 106:App/Src/app.c **** 
 107:App/Src/app.c **** void HAL_TIM_PeriodElapsedCallback(TIM_HandleTypeDef *htim)
 108:App/Src/app.c **** {
 427              		.loc 1 108 1 view -0
 428              		.cfi_startproc
 429              		@ args = 0, pretend = 0, frame = 0
 430              		@ frame_needed = 0, uses_anonymous_args = 0
 431              		.loc 1 108 1 is_stmt 0 view .LVU80
 432 0000 08B5     		push	{r3, lr}
 433              	.LCFI6:
 434              		.cfi_def_cfa_offset 8
 435              		.cfi_offset 3, -8
 436              		.cfi_offset 14, -4
 109:App/Src/app.c ****     if (htim->Instance == TIM2)
 437              		.loc 1 109 5 is_stmt 1 view .LVU81
 438              		.loc 1 109 13 is_stmt 0 view .LVU82
 439 0002 0368     		ldr	r3, [r0]
 440              		.loc 1 109 8 view .LVU83
 441 0004 B3F1804F 		cmp	r3, #1073741824
 442 0008 00D0     		beq	.L25
 443              	.LVL39:
 444              	.L22:
 110:App/Src/app.c ****     {
 111:App/Src/app.c ****         drive_increese_speed(&drv_l);
 112:App/Src/app.c ****         drive_increese_speed(&drv_r);
 113:App/Src/app.c ****     }
 114:App/Src/app.c **** 
 115:App/Src/app.c ****     // if (htim->Instance == TIM4)
ARM GAS  /tmp/cco9LWb0.s 			page 11


 116:App/Src/app.c ****     //     driveElapsedCallback(&drv_l);
 117:App/Src/app.c ****     // if (htim->Instance == TIM3)
 118:App/Src/app.c ****     //     driveElapsedCallback(&drv_r);
 119:App/Src/app.c **** }
 445              		.loc 1 119 1 view .LVU84
 446 000a 08BD     		pop	{r3, pc}
 447              	.LVL40:
 448              	.L25:
 111:App/Src/app.c ****         drive_increese_speed(&drv_r);
 449              		.loc 1 111 9 is_stmt 1 view .LVU85
 450 000c 0348     		ldr	r0, .L26
 451              	.LVL41:
 111:App/Src/app.c ****         drive_increese_speed(&drv_r);
 452              		.loc 1 111 9 is_stmt 0 view .LVU86
 453 000e FFF7FEFF 		bl	drive_increese_speed
 454              	.LVL42:
 112:App/Src/app.c ****     }
 455              		.loc 1 112 9 is_stmt 1 view .LVU87
 456 0012 0348     		ldr	r0, .L26+4
 457 0014 FFF7FEFF 		bl	drive_increese_speed
 458              	.LVL43:
 459              		.loc 1 119 1 is_stmt 0 view .LVU88
 460 0018 F7E7     		b	.L22
 461              	.L27:
 462 001a 00BF     		.align	2
 463              	.L26:
 464 001c 00000000 		.word	.LANCHOR1
 465 0020 00000000 		.word	.LANCHOR2
 466              		.cfi_endproc
 467              	.LFE70:
 469              		.global	val
 470              		.global	flag
 471              		.global	command
 472              		.section	.bss.command,"aw",%nobits
 473              		.align	2
 474              		.set	.LANCHOR0,. + 0
 477              	command:
 478 0000 00000000 		.space	32
 478      00000000 
 478      00000000 
 478      00000000 
 478      00000000 
 479              		.section	.bss.drv_l,"aw",%nobits
 480              		.align	2
 481              		.set	.LANCHOR1,. + 0
 484              	drv_l:
 485 0000 00000000 		.space	56
 485      00000000 
 485      00000000 
 485      00000000 
 485      00000000 
 486              		.section	.bss.drv_r,"aw",%nobits
 487              		.align	2
 488              		.set	.LANCHOR2,. + 0
 491              	drv_r:
 492 0000 00000000 		.space	56
 492      00000000 
ARM GAS  /tmp/cco9LWb0.s 			page 12


 492      00000000 
 492      00000000 
 492      00000000 
 493              		.section	.bss.flag,"aw",%nobits
 496              	flag:
 497 0000 00       		.space	1
 498              		.section	.bss.val,"aw",%nobits
 499              		.align	2
 502              	val:
 503 0000 00000000 		.space	4
 504              		.text
 505              	.Letext0:
 506              		.file 2 "/home/mark/toolchains/gcc-arm-none-eabi-10.3-2021.10/arm-none-eabi/include/machine/_defau
 507              		.file 3 "/home/mark/toolchains/gcc-arm-none-eabi-10.3-2021.10/arm-none-eabi/include/sys/_stdint.h"
 508              		.file 4 "Drivers/CMSIS/Device/ST/STM32F1xx/Include/stm32f103xb.h"
 509              		.file 5 "Drivers/STM32F1xx_HAL_Driver/Inc/stm32f1xx_hal_def.h"
 510              		.file 6 "Drivers/STM32F1xx_HAL_Driver/Inc/stm32f1xx_hal_dma.h"
 511              		.file 7 "Drivers/STM32F1xx_HAL_Driver/Inc/stm32f1xx_hal_tim.h"
 512              		.file 8 "Core/Inc/tim.h"
 513              		.file 9 "BSP/Inc/drive.h"
 514              		.file 10 "/home/mark/toolchains/gcc-arm-none-eabi-10.3-2021.10/arm-none-eabi/include/string.h"
 515              		.file 11 "BSP/Inc/uart_app.h"
 516              		.file 12 "Drivers/STM32F1xx_HAL_Driver/Inc/stm32f1xx_hal_gpio.h"
 517              		.file 13 "/home/mark/toolchains/gcc-arm-none-eabi-10.3-2021.10/arm-none-eabi/include/stdio.h"
 518              		.file 14 "Drivers/STM32F1xx_HAL_Driver/Inc/stm32f1xx_hal.h"
ARM GAS  /tmp/cco9LWb0.s 			page 13

