ARM GAS  /tmp/ccwFPghg.s 			page 1


   1              		.cpu cortex-m3
   2              		.arch armv7-m
   3              		.fpu softvfp
   4              		.eabi_attribute 20, 1
   5              		.eabi_attribute 21, 1
   6              		.eabi_attribute 23, 3
   7              		.eabi_attribute 24, 1
   8              		.eabi_attribute 25, 1
   9              		.eabi_attribute 26, 1
  10              		.eabi_attribute 30, 1
  11              		.eabi_attribute 34, 1
  12              		.eabi_attribute 18, 4
  13              		.file	"drive.c"
  14              		.text
  15              	.Ltext0:
  16              		.cfi_sections	.debug_frame
  17              		.section	.text.drive_init,"ax",%progbits
  18              		.align	1
  19              		.global	drive_init
  20              		.syntax unified
  21              		.thumb
  22              		.thumb_func
  24              	drive_init:
  25              	.LVL0:
  26              	.LFB65:
  27              		.file 1 "BSP/Src/drive.c"
   1:BSP/Src/drive.c **** #include "drive.h"
   2:BSP/Src/drive.c **** 
   3:BSP/Src/drive.c **** #define MAX_TIME_STEP 3000
   4:BSP/Src/drive.c **** 
   5:BSP/Src/drive.c **** void drive_init(
   6:BSP/Src/drive.c ****     struct drive *D,
   7:BSP/Src/drive.c ****     enum drv_location side,
   8:BSP/Src/drive.c ****     TIM_HandleTypeDef *tim,
   9:BSP/Src/drive.c ****     uint32_t tim_chanel,
  10:BSP/Src/drive.c ****     uint32_t ena_pin_port,
  11:BSP/Src/drive.c ****     uint32_t ena_pin,
  12:BSP/Src/drive.c ****     uint32_t dir_pin_port,
  13:BSP/Src/drive.c ****     uint32_t dir_pin,
  14:BSP/Src/drive.c ****     uint32_t axeleration,
  15:BSP/Src/drive.c ****     uint32_t PPR)
  16:BSP/Src/drive.c **** {
  28              		.loc 1 16 1 view -0
  29              		.cfi_startproc
  30              		@ args = 24, pretend = 0, frame = 0
  31              		@ frame_needed = 0, uses_anonymous_args = 0
  32              		@ link register save eliminated.
  33              		.loc 1 16 1 is_stmt 0 view .LVU1
  34 0000 10B4     		push	{r4}
  35              	.LCFI0:
  36              		.cfi_def_cfa_offset 4
  37              		.cfi_offset 4, -4
  17:BSP/Src/drive.c ****     D->enable = false;
  38              		.loc 1 17 5 is_stmt 1 view .LVU2
  39              		.loc 1 17 15 is_stmt 0 view .LVU3
  40 0002 0024     		movs	r4, #0
  41 0004 0470     		strb	r4, [r0]
ARM GAS  /tmp/ccwFPghg.s 			page 2


  18:BSP/Src/drive.c ****     D->side = side;
  42              		.loc 1 18 5 is_stmt 1 view .LVU4
  43              		.loc 1 18 13 is_stmt 0 view .LVU5
  44 0006 4170     		strb	r1, [r0, #1]
  19:BSP/Src/drive.c ****     D->direction = forward;
  45              		.loc 1 19 5 is_stmt 1 view .LVU6
  46              		.loc 1 19 18 is_stmt 0 view .LVU7
  47 0008 8470     		strb	r4, [r0, #2]
  20:BSP/Src/drive.c ****     D->target_speed = 0;  // RPM
  48              		.loc 1 20 5 is_stmt 1 view .LVU8
  49              		.loc 1 20 21 is_stmt 0 view .LVU9
  50 000a 4460     		str	r4, [r0, #4]
  21:BSP/Src/drive.c ****     D->current_speed = 0; // RPM NU
  51              		.loc 1 21 5 is_stmt 1 view .LVU10
  52              		.loc 1 21 22 is_stmt 0 view .LVU11
  53 000c 8460     		str	r4, [r0, #8]
  22:BSP/Src/drive.c ****     D->target_step_time = MAX_TIME_STEP;
  54              		.loc 1 22 5 is_stmt 1 view .LVU12
  55              		.loc 1 22 25 is_stmt 0 view .LVU13
  56 000e 40F6B831 		movw	r1, #3000
  57              	.LVL1:
  58              		.loc 1 22 25 view .LVU14
  59 0012 C160     		str	r1, [r0, #12]
  23:BSP/Src/drive.c ****     D->current_step_time = MAX_TIME_STEP;
  60              		.loc 1 23 5 is_stmt 1 view .LVU15
  61              		.loc 1 23 26 is_stmt 0 view .LVU16
  62 0014 0161     		str	r1, [r0, #16]
  24:BSP/Src/drive.c ****     D->tim = tim;
  63              		.loc 1 24 5 is_stmt 1 view .LVU17
  64              		.loc 1 24 12 is_stmt 0 view .LVU18
  65 0016 C261     		str	r2, [r0, #28]
  25:BSP/Src/drive.c ****     D->tim_chanel = tim_chanel;
  66              		.loc 1 25 5 is_stmt 1 view .LVU19
  67              		.loc 1 25 19 is_stmt 0 view .LVU20
  68 0018 0362     		str	r3, [r0, #32]
  26:BSP/Src/drive.c ****     D->ena_pin_port = ena_pin_port;
  69              		.loc 1 26 5 is_stmt 1 view .LVU21
  70              		.loc 1 26 21 is_stmt 0 view .LVU22
  71 001a 019B     		ldr	r3, [sp, #4]
  72              	.LVL2:
  73              		.loc 1 26 21 view .LVU23
  74 001c 4362     		str	r3, [r0, #36]
  27:BSP/Src/drive.c ****     D->ena_pin = ena_pin;
  75              		.loc 1 27 5 is_stmt 1 view .LVU24
  76              		.loc 1 27 16 is_stmt 0 view .LVU25
  77 001e 029B     		ldr	r3, [sp, #8]
  78 0020 8362     		str	r3, [r0, #40]
  28:BSP/Src/drive.c ****     D->dir_pin_port = dir_pin_port;
  79              		.loc 1 28 5 is_stmt 1 view .LVU26
  80              		.loc 1 28 21 is_stmt 0 view .LVU27
  81 0022 039B     		ldr	r3, [sp, #12]
  82 0024 C362     		str	r3, [r0, #44]
  29:BSP/Src/drive.c ****     D->dir_pin = dir_pin;
  83              		.loc 1 29 5 is_stmt 1 view .LVU28
  84              		.loc 1 29 16 is_stmt 0 view .LVU29
  85 0026 049B     		ldr	r3, [sp, #16]
  86 0028 0363     		str	r3, [r0, #48]
ARM GAS  /tmp/ccwFPghg.s 			page 3


  30:BSP/Src/drive.c ****     D->PPR = PPR;
  87              		.loc 1 30 5 is_stmt 1 view .LVU30
  88              		.loc 1 30 12 is_stmt 0 view .LVU31
  89 002a 069B     		ldr	r3, [sp, #24]
  90 002c 4363     		str	r3, [r0, #52]
  31:BSP/Src/drive.c ****     D->axeleration_step = axeleration;
  91              		.loc 1 31 5 is_stmt 1 view .LVU32
  92              		.loc 1 31 25 is_stmt 0 view .LVU33
  93 002e 059B     		ldr	r3, [sp, #20]
  94 0030 4361     		str	r3, [r0, #20]
  32:BSP/Src/drive.c ****     // drive_set_axel(&D, axeleration);
  33:BSP/Src/drive.c **** }
  95              		.loc 1 33 1 view .LVU34
  96 0032 10BC     		pop	{r4}
  97              	.LCFI1:
  98              		.cfi_restore 4
  99              		.cfi_def_cfa_offset 0
 100              	.LVL3:
 101              		.loc 1 33 1 view .LVU35
 102 0034 7047     		bx	lr
 103              		.cfi_endproc
 104              	.LFE65:
 106              		.section	.text.drive_on,"ax",%progbits
 107              		.align	1
 108              		.global	drive_on
 109              		.syntax unified
 110              		.thumb
 111              		.thumb_func
 113              	drive_on:
 114              	.LVL4:
 115              	.LFB66:
  34:BSP/Src/drive.c **** 
  35:BSP/Src/drive.c **** void drive_on(struct drive *D)
  36:BSP/Src/drive.c **** {
 116              		.loc 1 36 1 is_stmt 1 view -0
 117              		.cfi_startproc
 118              		@ args = 0, pretend = 0, frame = 0
 119              		@ frame_needed = 0, uses_anonymous_args = 0
 120              		.loc 1 36 1 is_stmt 0 view .LVU37
 121 0000 08B5     		push	{r3, lr}
 122              	.LCFI2:
 123              		.cfi_def_cfa_offset 8
 124              		.cfi_offset 3, -8
 125              		.cfi_offset 14, -4
  37:BSP/Src/drive.c ****     D->enable = true;
 126              		.loc 1 37 5 is_stmt 1 view .LVU38
 127              		.loc 1 37 15 is_stmt 0 view .LVU39
 128 0002 0122     		movs	r2, #1
 129 0004 0270     		strb	r2, [r0]
  38:BSP/Src/drive.c ****     HAL_GPIO_WritePin(D->ena_pin_port, D->ena_pin, SET);
 130              		.loc 1 38 5 is_stmt 1 view .LVU40
 131 0006 018D     		ldrh	r1, [r0, #40]
 132 0008 406A     		ldr	r0, [r0, #36]
 133              	.LVL5:
 134              		.loc 1 38 5 is_stmt 0 view .LVU41
 135 000a FFF7FEFF 		bl	HAL_GPIO_WritePin
 136              	.LVL6:
ARM GAS  /tmp/ccwFPghg.s 			page 4


  39:BSP/Src/drive.c **** }
 137              		.loc 1 39 1 view .LVU42
 138 000e 08BD     		pop	{r3, pc}
 139              		.cfi_endproc
 140              	.LFE66:
 142              		.section	.text.drive_off,"ax",%progbits
 143              		.align	1
 144              		.global	drive_off
 145              		.syntax unified
 146              		.thumb
 147              		.thumb_func
 149              	drive_off:
 150              	.LVL7:
 151              	.LFB67:
  40:BSP/Src/drive.c **** 
  41:BSP/Src/drive.c **** void drive_off(struct drive *D)
  42:BSP/Src/drive.c **** {
 152              		.loc 1 42 1 is_stmt 1 view -0
 153              		.cfi_startproc
 154              		@ args = 0, pretend = 0, frame = 0
 155              		@ frame_needed = 0, uses_anonymous_args = 0
 156              		.loc 1 42 1 is_stmt 0 view .LVU44
 157 0000 10B5     		push	{r4, lr}
 158              	.LCFI3:
 159              		.cfi_def_cfa_offset 8
 160              		.cfi_offset 4, -8
 161              		.cfi_offset 14, -4
 162 0002 0446     		mov	r4, r0
  43:BSP/Src/drive.c ****     D->enable = false;
 163              		.loc 1 43 5 is_stmt 1 view .LVU45
 164              		.loc 1 43 15 is_stmt 0 view .LVU46
 165 0004 0022     		movs	r2, #0
 166 0006 0270     		strb	r2, [r0]
  44:BSP/Src/drive.c ****     HAL_GPIO_WritePin(D->ena_pin_port, D->ena_pin, RESET);
 167              		.loc 1 44 5 is_stmt 1 view .LVU47
 168 0008 018D     		ldrh	r1, [r0, #40]
 169 000a 406A     		ldr	r0, [r0, #36]
 170              	.LVL8:
 171              		.loc 1 44 5 is_stmt 0 view .LVU48
 172 000c FFF7FEFF 		bl	HAL_GPIO_WritePin
 173              	.LVL9:
  45:BSP/Src/drive.c ****     HAL_TIM_PWM_Stop(D->tim, D->tim_chanel);
 174              		.loc 1 45 5 is_stmt 1 view .LVU49
 175 0010 216A     		ldr	r1, [r4, #32]
 176 0012 E069     		ldr	r0, [r4, #28]
 177 0014 FFF7FEFF 		bl	HAL_TIM_PWM_Stop
 178              	.LVL10:
  46:BSP/Src/drive.c ****     HAL_TIM_Base_Stop_IT(D->tim);
 179              		.loc 1 46 5 view .LVU50
 180 0018 E069     		ldr	r0, [r4, #28]
 181 001a FFF7FEFF 		bl	HAL_TIM_Base_Stop_IT
 182              	.LVL11:
  47:BSP/Src/drive.c **** }
 183              		.loc 1 47 1 is_stmt 0 view .LVU51
 184 001e 10BD     		pop	{r4, pc}
 185              		.loc 1 47 1 view .LVU52
 186              		.cfi_endproc
ARM GAS  /tmp/ccwFPghg.s 			page 5


 187              	.LFE67:
 189              		.section	.text.drive_set_axel,"ax",%progbits
 190              		.align	1
 191              		.global	drive_set_axel
 192              		.syntax unified
 193              		.thumb
 194              		.thumb_func
 196              	drive_set_axel:
 197              	.LVL12:
 198              	.LFB68:
  48:BSP/Src/drive.c **** 
  49:BSP/Src/drive.c **** bool drive_set_axel(struct drive *D, uint32_t axeleration)
  50:BSP/Src/drive.c **** {
 199              		.loc 1 50 1 is_stmt 1 view -0
 200              		.cfi_startproc
 201              		@ args = 0, pretend = 0, frame = 0
 202              		@ frame_needed = 0, uses_anonymous_args = 0
 203              		.loc 1 50 1 is_stmt 0 view .LVU54
 204 0000 08B5     		push	{r3, lr}
 205              	.LCFI4:
 206              		.cfi_def_cfa_offset 8
 207              		.cfi_offset 3, -8
 208              		.cfi_offset 14, -4
  51:BSP/Src/drive.c ****     // нужно написать нормальный пересчет единиц
  52:BSP/Src/drive.c ****     // не работает
  53:BSP/Src/drive.c ****     D->axeleration_step = axeleration;
 209              		.loc 1 53 5 is_stmt 1 view .LVU55
 210              		.loc 1 53 25 is_stmt 0 view .LVU56
 211 0002 4161     		str	r1, [r0, #20]
  54:BSP/Src/drive.c ****     HAL_GPIO_TogglePin(LED_GPIO_Port, LED_Pin);
 212              		.loc 1 54 5 is_stmt 1 view .LVU57
 213 0004 4FF40051 		mov	r1, #8192
 214              	.LVL13:
 215              		.loc 1 54 5 is_stmt 0 view .LVU58
 216 0008 0148     		ldr	r0, .L9
 217              	.LVL14:
 218              		.loc 1 54 5 view .LVU59
 219 000a FFF7FEFF 		bl	HAL_GPIO_TogglePin
 220              	.LVL15:
  55:BSP/Src/drive.c **** }
 221              		.loc 1 55 1 view .LVU60
 222 000e 08BD     		pop	{r3, pc}
 223              	.L10:
 224              		.align	2
 225              	.L9:
 226 0010 00100140 		.word	1073811456
 227              		.cfi_endproc
 228              	.LFE68:
 230              		.section	.text.drive_set_vel,"ax",%progbits
 231              		.align	1
 232              		.global	drive_set_vel
 233              		.syntax unified
 234              		.thumb
 235              		.thumb_func
 237              	drive_set_vel:
 238              	.LVL16:
 239              	.LFB69:
ARM GAS  /tmp/ccwFPghg.s 			page 6


  56:BSP/Src/drive.c **** 
  57:BSP/Src/drive.c **** bool drive_set_vel(struct drive *D, int32_t vel)
  58:BSP/Src/drive.c **** {
 240              		.loc 1 58 1 is_stmt 1 view -0
 241              		.cfi_startproc
 242              		@ args = 0, pretend = 0, frame = 0
 243              		@ frame_needed = 0, uses_anonymous_args = 0
 244              		.loc 1 58 1 is_stmt 0 view .LVU62
 245 0000 70B5     		push	{r4, r5, r6, lr}
 246              	.LCFI5:
 247              		.cfi_def_cfa_offset 16
 248              		.cfi_offset 4, -16
 249              		.cfi_offset 5, -12
 250              		.cfi_offset 6, -8
 251              		.cfi_offset 14, -4
  59:BSP/Src/drive.c ****     if (D->enable == false)
 252              		.loc 1 59 5 is_stmt 1 view .LVU63
 253              		.loc 1 59 10 is_stmt 0 view .LVU64
 254 0002 0678     		ldrb	r6, [r0]	@ zero_extendqisi2
 255              		.loc 1 59 8 view .LVU65
 256 0004 002E     		cmp	r6, #0
 257 0006 2DD0     		beq	.L12
 258 0008 0446     		mov	r4, r0
 259 000a 0D46     		mov	r5, r1
  60:BSP/Src/drive.c ****     {
  61:BSP/Src/drive.c ****         return false;
  62:BSP/Src/drive.c ****     }
  63:BSP/Src/drive.c ****     else
  64:BSP/Src/drive.c ****     {
  65:BSP/Src/drive.c ****         // if ((vel < 150) && (vel > -150))
  66:BSP/Src/drive.c ****         // {
  67:BSP/Src/drive.c ****         //     HAL_TIM_PWM_Stop(D->tim, D->tim_chanel);
  68:BSP/Src/drive.c ****         //     HAL_TIM_Base_Stop_IT(D->tim);
  69:BSP/Src/drive.c ****         //     return;
  70:BSP/Src/drive.c ****         // }
  71:BSP/Src/drive.c ****         if (vel < 0)
 260              		.loc 1 71 9 is_stmt 1 view .LVU66
 261              		.loc 1 71 12 is_stmt 0 view .LVU67
 262 000c 0029     		cmp	r1, #0
 263 000e 2BDB     		blt	.L20
  72:BSP/Src/drive.c ****         {
  73:BSP/Src/drive.c ****             HAL_GPIO_WritePin(D->dir_pin_port, D->dir_pin, PIN_OFF);
  74:BSP/Src/drive.c ****             D->direction = backward;
  75:BSP/Src/drive.c ****             vel = vel * (-1);
  76:BSP/Src/drive.c ****         }
  77:BSP/Src/drive.c ****         else
  78:BSP/Src/drive.c ****         {
  79:BSP/Src/drive.c ****             D->direction = forward;
 264              		.loc 1 79 13 is_stmt 1 view .LVU68
 265              		.loc 1 79 26 is_stmt 0 view .LVU69
 266 0010 0022     		movs	r2, #0
 267 0012 8270     		strb	r2, [r0, #2]
  80:BSP/Src/drive.c ****             HAL_GPIO_WritePin(D->dir_pin_port, D->dir_pin, PIN_ON);
 268              		.loc 1 80 13 is_stmt 1 view .LVU70
 269 0014 018E     		ldrh	r1, [r0, #48]
 270              	.LVL17:
 271              		.loc 1 80 13 is_stmt 0 view .LVU71
ARM GAS  /tmp/ccwFPghg.s 			page 7


 272 0016 C06A     		ldr	r0, [r0, #44]
 273              	.LVL18:
 274              		.loc 1 80 13 view .LVU72
 275 0018 FFF7FEFF 		bl	HAL_GPIO_WritePin
 276              	.LVL19:
 277              	.L14:
  81:BSP/Src/drive.c ****         }
  82:BSP/Src/drive.c **** 
  83:BSP/Src/drive.c ****         D->target_speed = vel;
 278              		.loc 1 83 9 is_stmt 1 view .LVU73
 279              		.loc 1 83 25 is_stmt 0 view .LVU74
 280 001c 6560     		str	r5, [r4, #4]
  84:BSP/Src/drive.c ****         D->target_step_time = 48000000 /*MHz*/ / (((vel)*D->PPR) / 60 /*RPM*/);
 281              		.loc 1 84 9 is_stmt 1 view .LVU75
 282              		.loc 1 84 59 is_stmt 0 view .LVU76
 283 001e 616B     		ldr	r1, [r4, #52]
 284              		.loc 1 84 57 view .LVU77
 285 0020 01FB05F5 		mul	r5, r1, r5
 286              	.LVL20:
 287              		.loc 1 84 66 view .LVU78
 288 0024 2149     		ldr	r1, .L23
 289 0026 A1FB0535 		umull	r3, r5, r1, r5
 290 002a 6D09     		lsrs	r5, r5, #5
 291              		.loc 1 84 48 view .LVU79
 292 002c 204B     		ldr	r3, .L23+4
 293 002e B3FBF5F5 		udiv	r5, r3, r5
 294              		.loc 1 84 29 view .LVU80
 295 0032 E560     		str	r5, [r4, #12]
  85:BSP/Src/drive.c ****         __HAL_TIM_SetAutoreload(D->tim, D->current_step_time - 1);
 296              		.loc 1 85 9 is_stmt 1 view .LVU81
 297              		.loc 1 85 9 view .LVU82
 298 0034 2369     		ldr	r3, [r4, #16]
 299 0036 E269     		ldr	r2, [r4, #28]
 300 0038 1268     		ldr	r2, [r2]
 301 003a 013B     		subs	r3, r3, #1
 302 003c D362     		str	r3, [r2, #44]
 303              	.LVL21:
 304              		.loc 1 85 9 view .LVU83
 305 003e 2369     		ldr	r3, [r4, #16]
 306 0040 E269     		ldr	r2, [r4, #28]
 307 0042 013B     		subs	r3, r3, #1
 308 0044 D360     		str	r3, [r2, #12]
 309              		.loc 1 85 9 view .LVU84
  86:BSP/Src/drive.c ****         __HAL_TIM_SET_COMPARE(D->tim, D->tim_chanel, (D->current_step_time >> 1) - 1);
 310              		.loc 1 86 9 view .LVU85
 311 0046 236A     		ldr	r3, [r4, #32]
 312 0048 BBB9     		cbnz	r3, .L15
 313              		.loc 1 86 9 is_stmt 0 discriminator 1 view .LVU86
 314 004a 2369     		ldr	r3, [r4, #16]
 315 004c 5B10     		asrs	r3, r3, #1
 316 004e E269     		ldr	r2, [r4, #28]
 317 0050 1268     		ldr	r2, [r2]
 318 0052 013B     		subs	r3, r3, #1
 319 0054 5363     		str	r3, [r2, #52]
 320              	.L16:
  87:BSP/Src/drive.c ****         HAL_TIM_PWM_Start(D->tim, D->tim_chanel);
 321              		.loc 1 87 9 is_stmt 1 view .LVU87
ARM GAS  /tmp/ccwFPghg.s 			page 8


 322 0056 216A     		ldr	r1, [r4, #32]
 323 0058 E069     		ldr	r0, [r4, #28]
 324 005a FFF7FEFF 		bl	HAL_TIM_PWM_Start
 325              	.LVL22:
  88:BSP/Src/drive.c ****         HAL_TIM_Base_Start_IT(D->tim);
 326              		.loc 1 88 9 view .LVU88
 327 005e E069     		ldr	r0, [r4, #28]
 328 0060 FFF7FEFF 		bl	HAL_TIM_Base_Start_IT
 329              	.LVL23:
  89:BSP/Src/drive.c **** 
  90:BSP/Src/drive.c ****         return true;
 330              		.loc 1 90 9 view .LVU89
 331              	.L12:
  91:BSP/Src/drive.c ****     }
  92:BSP/Src/drive.c **** }
 332              		.loc 1 92 1 is_stmt 0 view .LVU90
 333 0064 3046     		mov	r0, r6
 334 0066 70BD     		pop	{r4, r5, r6, pc}
 335              	.LVL24:
 336              	.L20:
  73:BSP/Src/drive.c ****             D->direction = backward;
 337              		.loc 1 73 13 is_stmt 1 view .LVU91
 338 0068 0122     		movs	r2, #1
 339 006a 018E     		ldrh	r1, [r0, #48]
 340              	.LVL25:
  73:BSP/Src/drive.c ****             D->direction = backward;
 341              		.loc 1 73 13 is_stmt 0 view .LVU92
 342 006c C06A     		ldr	r0, [r0, #44]
 343              	.LVL26:
  73:BSP/Src/drive.c ****             D->direction = backward;
 344              		.loc 1 73 13 view .LVU93
 345 006e FFF7FEFF 		bl	HAL_GPIO_WritePin
 346              	.LVL27:
  74:BSP/Src/drive.c ****             vel = vel * (-1);
 347              		.loc 1 74 13 is_stmt 1 view .LVU94
  74:BSP/Src/drive.c ****             vel = vel * (-1);
 348              		.loc 1 74 26 is_stmt 0 view .LVU95
 349 0072 0123     		movs	r3, #1
 350 0074 A370     		strb	r3, [r4, #2]
  75:BSP/Src/drive.c ****         }
 351              		.loc 1 75 13 is_stmt 1 view .LVU96
  75:BSP/Src/drive.c ****         }
 352              		.loc 1 75 17 is_stmt 0 view .LVU97
 353 0076 6D42     		rsbs	r5, r5, #0
 354              	.LVL28:
  75:BSP/Src/drive.c ****         }
 355              		.loc 1 75 17 view .LVU98
 356 0078 D0E7     		b	.L14
 357              	.LVL29:
 358              	.L15:
  86:BSP/Src/drive.c ****         HAL_TIM_PWM_Start(D->tim, D->tim_chanel);
 359              		.loc 1 86 9 discriminator 2 view .LVU99
 360 007a 042B     		cmp	r3, #4
 361 007c 08D0     		beq	.L21
  86:BSP/Src/drive.c ****         HAL_TIM_PWM_Start(D->tim, D->tim_chanel);
 362              		.loc 1 86 9 discriminator 4 view .LVU100
 363 007e 082B     		cmp	r3, #8
ARM GAS  /tmp/ccwFPghg.s 			page 9


 364 0080 0DD0     		beq	.L22
  86:BSP/Src/drive.c ****         HAL_TIM_PWM_Start(D->tim, D->tim_chanel);
 365              		.loc 1 86 9 discriminator 7 view .LVU101
 366 0082 2369     		ldr	r3, [r4, #16]
 367 0084 5B10     		asrs	r3, r3, #1
 368 0086 E269     		ldr	r2, [r4, #28]
 369 0088 1268     		ldr	r2, [r2]
 370 008a 013B     		subs	r3, r3, #1
 371 008c 1364     		str	r3, [r2, #64]
 372 008e E2E7     		b	.L16
 373              	.L21:
  86:BSP/Src/drive.c ****         HAL_TIM_PWM_Start(D->tim, D->tim_chanel);
 374              		.loc 1 86 9 discriminator 3 view .LVU102
 375 0090 2369     		ldr	r3, [r4, #16]
 376 0092 5B10     		asrs	r3, r3, #1
 377 0094 E269     		ldr	r2, [r4, #28]
 378 0096 1268     		ldr	r2, [r2]
 379 0098 013B     		subs	r3, r3, #1
 380 009a 9363     		str	r3, [r2, #56]
 381 009c DBE7     		b	.L16
 382              	.L22:
  86:BSP/Src/drive.c ****         HAL_TIM_PWM_Start(D->tim, D->tim_chanel);
 383              		.loc 1 86 9 discriminator 6 view .LVU103
 384 009e 2369     		ldr	r3, [r4, #16]
 385 00a0 5B10     		asrs	r3, r3, #1
 386 00a2 E269     		ldr	r2, [r4, #28]
 387 00a4 1268     		ldr	r2, [r2]
 388 00a6 013B     		subs	r3, r3, #1
 389 00a8 D363     		str	r3, [r2, #60]
 390 00aa D4E7     		b	.L16
 391              	.L24:
 392              		.align	2
 393              	.L23:
 394 00ac 89888888 		.word	-2004318071
 395 00b0 006CDC02 		.word	48000000
 396              		.cfi_endproc
 397              	.LFE69:
 399              		.section	.text.drive_increese_speed,"ax",%progbits
 400              		.align	1
 401              		.global	drive_increese_speed
 402              		.syntax unified
 403              		.thumb
 404              		.thumb_func
 406              	drive_increese_speed:
 407              	.LVL30:
 408              	.LFB70:
  93:BSP/Src/drive.c **** 
  94:BSP/Src/drive.c **** void drive_increese_speed(struct drive *D)
  95:BSP/Src/drive.c **** {
 409              		.loc 1 95 1 is_stmt 1 view -0
 410              		.cfi_startproc
 411              		@ args = 0, pretend = 0, frame = 0
 412              		@ frame_needed = 0, uses_anonymous_args = 0
 413              		.loc 1 95 1 is_stmt 0 view .LVU105
 414 0000 10B5     		push	{r4, lr}
 415              	.LCFI6:
 416              		.cfi_def_cfa_offset 8
ARM GAS  /tmp/ccwFPghg.s 			page 10


 417              		.cfi_offset 4, -8
 418              		.cfi_offset 14, -4
 419 0002 0446     		mov	r4, r0
  96:BSP/Src/drive.c **** 
  97:BSP/Src/drive.c ****     if (D->target_step_time > D->current_step_time)
 420              		.loc 1 97 5 is_stmt 1 view .LVU106
 421              		.loc 1 97 10 is_stmt 0 view .LVU107
 422 0004 C368     		ldr	r3, [r0, #12]
 423              		.loc 1 97 32 view .LVU108
 424 0006 0269     		ldr	r2, [r0, #16]
 425              		.loc 1 97 8 view .LVU109
 426 0008 9342     		cmp	r3, r2
 427 000a 40DD     		ble	.L26
  98:BSP/Src/drive.c ****     {
  99:BSP/Src/drive.c ****         if (D->target_step_time - D->current_step_time > D->axeleration_step)
 428              		.loc 1 99 9 is_stmt 1 view .LVU110
 429              		.loc 1 99 33 is_stmt 0 view .LVU111
 430 000c 9B1A     		subs	r3, r3, r2
 431              		.loc 1 99 59 view .LVU112
 432 000e 4169     		ldr	r1, [r0, #20]
 433              		.loc 1 99 12 view .LVU113
 434 0010 8B42     		cmp	r3, r1
 435 0012 11D9     		bls	.L27
 100:BSP/Src/drive.c ****         {
 101:BSP/Src/drive.c ****             D->current_step_time = D->current_step_time + D->axeleration_step;
 436              		.loc 1 101 13 is_stmt 1 view .LVU114
 437              		.loc 1 101 57 is_stmt 0 view .LVU115
 438 0014 0A44     		add	r2, r2, r1
 439              		.loc 1 101 34 view .LVU116
 440 0016 0261     		str	r2, [r0, #16]
 102:BSP/Src/drive.c ****             __HAL_TIM_SetAutoreload(D->tim, D->current_step_time - 1);
 441              		.loc 1 102 13 is_stmt 1 view .LVU117
 442              		.loc 1 102 13 view .LVU118
 443 0018 C369     		ldr	r3, [r0, #28]
 444 001a 1B68     		ldr	r3, [r3]
 445 001c 013A     		subs	r2, r2, #1
 446 001e DA62     		str	r2, [r3, #44]
 447              		.loc 1 102 13 view .LVU119
 448 0020 0369     		ldr	r3, [r0, #16]
 449 0022 C269     		ldr	r2, [r0, #28]
 450 0024 013B     		subs	r3, r3, #1
 451 0026 D360     		str	r3, [r2, #12]
 452              		.loc 1 102 13 view .LVU120
 103:BSP/Src/drive.c ****             __HAL_TIM_SET_COMPARE(D->tim, D->tim_chanel, (D->current_step_time >> 1) - 1);
 453              		.loc 1 103 13 view .LVU121
 454 0028 036A     		ldr	r3, [r0, #32]
 455 002a BBB9     		cbnz	r3, .L28
 456              		.loc 1 103 13 is_stmt 0 discriminator 1 view .LVU122
 457 002c 0369     		ldr	r3, [r0, #16]
 458 002e 5B10     		asrs	r3, r3, #1
 459 0030 C269     		ldr	r2, [r0, #28]
 460 0032 1268     		ldr	r2, [r2]
 461 0034 013B     		subs	r3, r3, #1
 462 0036 5363     		str	r3, [r2, #52]
 463              	.L27:
 104:BSP/Src/drive.c ****         }
 105:BSP/Src/drive.c ****         D->current_speed = (48000000 * 60) / (D->current_step_time * D->PPR);
ARM GAS  /tmp/ccwFPghg.s 			page 11


 464              		.loc 1 105 9 is_stmt 1 view .LVU123
 465              		.loc 1 105 48 is_stmt 0 view .LVU124
 466 0038 2369     		ldr	r3, [r4, #16]
 467              		.loc 1 105 71 view .LVU125
 468 003a 626B     		ldr	r2, [r4, #52]
 469              		.loc 1 105 68 view .LVU126
 470 003c 03FB02F2 		mul	r2, r3, r2
 471              		.loc 1 105 44 view .LVU127
 472 0040 374B     		ldr	r3, .L43
 473 0042 B3FBF2F3 		udiv	r3, r3, r2
 474              		.loc 1 105 26 view .LVU128
 475 0046 A360     		str	r3, [r4, #8]
 106:BSP/Src/drive.c ****         HAL_TIM_PWM_Start(D->tim, D->tim_chanel);
 476              		.loc 1 106 9 is_stmt 1 view .LVU129
 477 0048 216A     		ldr	r1, [r4, #32]
 478 004a E069     		ldr	r0, [r4, #28]
 479              	.LVL31:
 480              		.loc 1 106 9 is_stmt 0 view .LVU130
 481 004c FFF7FEFF 		bl	HAL_TIM_PWM_Start
 482              	.LVL32:
 483              	.L31:
 107:BSP/Src/drive.c ****     }
 108:BSP/Src/drive.c ****     else if (D->target_step_time < D->current_step_time)
 109:BSP/Src/drive.c ****     {
 110:BSP/Src/drive.c ****         if (D->current_step_time - D->target_step_time >= D->axeleration_step)
 111:BSP/Src/drive.c ****         {
 112:BSP/Src/drive.c ****             D->current_step_time = D->current_step_time - D->axeleration_step;
 113:BSP/Src/drive.c ****             __HAL_TIM_SetAutoreload(D->tim, D->current_step_time - 1);
 114:BSP/Src/drive.c ****             __HAL_TIM_SET_COMPARE(D->tim, D->tim_chanel, (D->current_step_time >> 1) - 1);
 115:BSP/Src/drive.c ****             D->current_speed = (48000000 * 60) / (D->current_step_time * D->PPR);
 116:BSP/Src/drive.c ****             HAL_TIM_PWM_Start(D->tim, D->tim_chanel);
 117:BSP/Src/drive.c ****         }
 118:BSP/Src/drive.c ****     }
 119:BSP/Src/drive.c ****     if (D->current_step_time > MAX_TIME_STEP)
 484              		.loc 1 119 5 is_stmt 1 view .LVU131
 485              		.loc 1 119 10 is_stmt 0 view .LVU132
 486 0050 2269     		ldr	r2, [r4, #16]
 487              		.loc 1 119 8 view .LVU133
 488 0052 40F6B833 		movw	r3, #3000
 489 0056 9A42     		cmp	r2, r3
 490 0058 57DC     		bgt	.L38
 491              	.L25:
 120:BSP/Src/drive.c ****     {
 121:BSP/Src/drive.c ****         HAL_TIM_PWM_Stop(D->tim, D->tim_chanel);
 122:BSP/Src/drive.c ****         HAL_TIM_Base_Stop_IT(D->tim);
 123:BSP/Src/drive.c ****         D->current_speed = 0;
 124:BSP/Src/drive.c ****     }
 125:BSP/Src/drive.c **** }
 492              		.loc 1 125 1 view .LVU134
 493 005a 10BD     		pop	{r4, pc}
 494              	.LVL33:
 495              	.L28:
 103:BSP/Src/drive.c ****         }
 496              		.loc 1 103 13 discriminator 2 view .LVU135
 497 005c 042B     		cmp	r3, #4
 498 005e 08D0     		beq	.L39
 103:BSP/Src/drive.c ****         }
ARM GAS  /tmp/ccwFPghg.s 			page 12


 499              		.loc 1 103 13 discriminator 4 view .LVU136
 500 0060 082B     		cmp	r3, #8
 501 0062 0DD0     		beq	.L40
 103:BSP/Src/drive.c ****         }
 502              		.loc 1 103 13 discriminator 7 view .LVU137
 503 0064 0369     		ldr	r3, [r0, #16]
 504 0066 5B10     		asrs	r3, r3, #1
 505 0068 C269     		ldr	r2, [r0, #28]
 506 006a 1268     		ldr	r2, [r2]
 507 006c 013B     		subs	r3, r3, #1
 508 006e 1364     		str	r3, [r2, #64]
 509 0070 E2E7     		b	.L27
 510              	.L39:
 103:BSP/Src/drive.c ****         }
 511              		.loc 1 103 13 discriminator 3 view .LVU138
 512 0072 0369     		ldr	r3, [r0, #16]
 513 0074 5B10     		asrs	r3, r3, #1
 514 0076 C269     		ldr	r2, [r0, #28]
 515 0078 1268     		ldr	r2, [r2]
 516 007a 013B     		subs	r3, r3, #1
 517 007c 9363     		str	r3, [r2, #56]
 518 007e DBE7     		b	.L27
 519              	.L40:
 103:BSP/Src/drive.c ****         }
 520              		.loc 1 103 13 discriminator 6 view .LVU139
 521 0080 0369     		ldr	r3, [r0, #16]
 522 0082 5B10     		asrs	r3, r3, #1
 523 0084 C269     		ldr	r2, [r0, #28]
 524 0086 1268     		ldr	r2, [r2]
 525 0088 013B     		subs	r3, r3, #1
 526 008a D363     		str	r3, [r2, #60]
 527 008c D4E7     		b	.L27
 528              	.L26:
 108:BSP/Src/drive.c ****     {
 529              		.loc 1 108 10 is_stmt 1 view .LVU140
 108:BSP/Src/drive.c ****     {
 530              		.loc 1 108 13 is_stmt 0 view .LVU141
 531 008e 9342     		cmp	r3, r2
 532 0090 DEDA     		bge	.L31
 110:BSP/Src/drive.c ****         {
 533              		.loc 1 110 9 is_stmt 1 view .LVU142
 110:BSP/Src/drive.c ****         {
 534              		.loc 1 110 34 is_stmt 0 view .LVU143
 535 0092 D31A     		subs	r3, r2, r3
 110:BSP/Src/drive.c ****         {
 536              		.loc 1 110 60 view .LVU144
 537 0094 4169     		ldr	r1, [r0, #20]
 110:BSP/Src/drive.c ****         {
 538              		.loc 1 110 12 view .LVU145
 539 0096 8B42     		cmp	r3, r1
 540 0098 DAD3     		bcc	.L31
 112:BSP/Src/drive.c ****             __HAL_TIM_SetAutoreload(D->tim, D->current_step_time - 1);
 541              		.loc 1 112 13 is_stmt 1 view .LVU146
 112:BSP/Src/drive.c ****             __HAL_TIM_SetAutoreload(D->tim, D->current_step_time - 1);
 542              		.loc 1 112 57 is_stmt 0 view .LVU147
 543 009a 521A     		subs	r2, r2, r1
 112:BSP/Src/drive.c ****             __HAL_TIM_SetAutoreload(D->tim, D->current_step_time - 1);
ARM GAS  /tmp/ccwFPghg.s 			page 13


 544              		.loc 1 112 34 view .LVU148
 545 009c 0261     		str	r2, [r0, #16]
 113:BSP/Src/drive.c ****             __HAL_TIM_SET_COMPARE(D->tim, D->tim_chanel, (D->current_step_time >> 1) - 1);
 546              		.loc 1 113 13 is_stmt 1 view .LVU149
 113:BSP/Src/drive.c ****             __HAL_TIM_SET_COMPARE(D->tim, D->tim_chanel, (D->current_step_time >> 1) - 1);
 547              		.loc 1 113 13 view .LVU150
 548 009e C369     		ldr	r3, [r0, #28]
 549 00a0 1B68     		ldr	r3, [r3]
 550 00a2 013A     		subs	r2, r2, #1
 551 00a4 DA62     		str	r2, [r3, #44]
 113:BSP/Src/drive.c ****             __HAL_TIM_SET_COMPARE(D->tim, D->tim_chanel, (D->current_step_time >> 1) - 1);
 552              		.loc 1 113 13 view .LVU151
 553 00a6 0369     		ldr	r3, [r0, #16]
 554 00a8 C269     		ldr	r2, [r0, #28]
 555 00aa 013B     		subs	r3, r3, #1
 556 00ac D360     		str	r3, [r2, #12]
 113:BSP/Src/drive.c ****             __HAL_TIM_SET_COMPARE(D->tim, D->tim_chanel, (D->current_step_time >> 1) - 1);
 557              		.loc 1 113 13 view .LVU152
 114:BSP/Src/drive.c ****             D->current_speed = (48000000 * 60) / (D->current_step_time * D->PPR);
 558              		.loc 1 114 13 view .LVU153
 559 00ae 036A     		ldr	r3, [r0, #32]
 560 00b0 93B9     		cbnz	r3, .L32
 114:BSP/Src/drive.c ****             D->current_speed = (48000000 * 60) / (D->current_step_time * D->PPR);
 561              		.loc 1 114 13 is_stmt 0 discriminator 1 view .LVU154
 562 00b2 0369     		ldr	r3, [r0, #16]
 563 00b4 5B10     		asrs	r3, r3, #1
 564 00b6 C269     		ldr	r2, [r0, #28]
 565 00b8 1268     		ldr	r2, [r2]
 566 00ba 013B     		subs	r3, r3, #1
 567 00bc 5363     		str	r3, [r2, #52]
 568              	.L33:
 115:BSP/Src/drive.c ****             HAL_TIM_PWM_Start(D->tim, D->tim_chanel);
 569              		.loc 1 115 13 is_stmt 1 view .LVU155
 115:BSP/Src/drive.c ****             HAL_TIM_PWM_Start(D->tim, D->tim_chanel);
 570              		.loc 1 115 52 is_stmt 0 view .LVU156
 571 00be 2369     		ldr	r3, [r4, #16]
 115:BSP/Src/drive.c ****             HAL_TIM_PWM_Start(D->tim, D->tim_chanel);
 572              		.loc 1 115 75 view .LVU157
 573 00c0 626B     		ldr	r2, [r4, #52]
 115:BSP/Src/drive.c ****             HAL_TIM_PWM_Start(D->tim, D->tim_chanel);
 574              		.loc 1 115 72 view .LVU158
 575 00c2 03FB02F2 		mul	r2, r3, r2
 115:BSP/Src/drive.c ****             HAL_TIM_PWM_Start(D->tim, D->tim_chanel);
 576              		.loc 1 115 48 view .LVU159
 577 00c6 164B     		ldr	r3, .L43
 578 00c8 B3FBF2F3 		udiv	r3, r3, r2
 115:BSP/Src/drive.c ****             HAL_TIM_PWM_Start(D->tim, D->tim_chanel);
 579              		.loc 1 115 30 view .LVU160
 580 00cc A360     		str	r3, [r4, #8]
 116:BSP/Src/drive.c ****         }
 581              		.loc 1 116 13 is_stmt 1 view .LVU161
 582 00ce 216A     		ldr	r1, [r4, #32]
 583 00d0 E069     		ldr	r0, [r4, #28]
 584              	.LVL34:
 116:BSP/Src/drive.c ****         }
 585              		.loc 1 116 13 is_stmt 0 view .LVU162
 586 00d2 FFF7FEFF 		bl	HAL_TIM_PWM_Start
ARM GAS  /tmp/ccwFPghg.s 			page 14


 587              	.LVL35:
 588 00d6 BBE7     		b	.L31
 589              	.LVL36:
 590              	.L32:
 114:BSP/Src/drive.c ****             D->current_speed = (48000000 * 60) / (D->current_step_time * D->PPR);
 591              		.loc 1 114 13 discriminator 2 view .LVU163
 592 00d8 042B     		cmp	r3, #4
 593 00da 08D0     		beq	.L41
 114:BSP/Src/drive.c ****             D->current_speed = (48000000 * 60) / (D->current_step_time * D->PPR);
 594              		.loc 1 114 13 discriminator 4 view .LVU164
 595 00dc 082B     		cmp	r3, #8
 596 00de 0DD0     		beq	.L42
 114:BSP/Src/drive.c ****             D->current_speed = (48000000 * 60) / (D->current_step_time * D->PPR);
 597              		.loc 1 114 13 discriminator 7 view .LVU165
 598 00e0 0369     		ldr	r3, [r0, #16]
 599 00e2 5B10     		asrs	r3, r3, #1
 600 00e4 C269     		ldr	r2, [r0, #28]
 601 00e6 1268     		ldr	r2, [r2]
 602 00e8 013B     		subs	r3, r3, #1
 603 00ea 1364     		str	r3, [r2, #64]
 604 00ec E7E7     		b	.L33
 605              	.L41:
 114:BSP/Src/drive.c ****             D->current_speed = (48000000 * 60) / (D->current_step_time * D->PPR);
 606              		.loc 1 114 13 discriminator 3 view .LVU166
 607 00ee 0369     		ldr	r3, [r0, #16]
 608 00f0 5B10     		asrs	r3, r3, #1
 609 00f2 C269     		ldr	r2, [r0, #28]
 610 00f4 1268     		ldr	r2, [r2]
 611 00f6 013B     		subs	r3, r3, #1
 612 00f8 9363     		str	r3, [r2, #56]
 613 00fa E0E7     		b	.L33
 614              	.L42:
 114:BSP/Src/drive.c ****             D->current_speed = (48000000 * 60) / (D->current_step_time * D->PPR);
 615              		.loc 1 114 13 discriminator 6 view .LVU167
 616 00fc 0369     		ldr	r3, [r0, #16]
 617 00fe 5B10     		asrs	r3, r3, #1
 618 0100 C269     		ldr	r2, [r0, #28]
 619 0102 1268     		ldr	r2, [r2]
 620 0104 013B     		subs	r3, r3, #1
 621 0106 D363     		str	r3, [r2, #60]
 622 0108 D9E7     		b	.L33
 623              	.LVL37:
 624              	.L38:
 121:BSP/Src/drive.c ****         HAL_TIM_Base_Stop_IT(D->tim);
 625              		.loc 1 121 9 is_stmt 1 view .LVU168
 626 010a 216A     		ldr	r1, [r4, #32]
 627 010c E069     		ldr	r0, [r4, #28]
 628 010e FFF7FEFF 		bl	HAL_TIM_PWM_Stop
 629              	.LVL38:
 122:BSP/Src/drive.c ****         D->current_speed = 0;
 630              		.loc 1 122 9 view .LVU169
 631 0112 E069     		ldr	r0, [r4, #28]
 632 0114 FFF7FEFF 		bl	HAL_TIM_Base_Stop_IT
 633              	.LVL39:
 123:BSP/Src/drive.c ****     }
 634              		.loc 1 123 9 view .LVU170
 123:BSP/Src/drive.c ****     }
ARM GAS  /tmp/ccwFPghg.s 			page 15


 635              		.loc 1 123 26 is_stmt 0 view .LVU171
 636 0118 0023     		movs	r3, #0
 637 011a A360     		str	r3, [r4, #8]
 638              		.loc 1 125 1 view .LVU172
 639 011c 9DE7     		b	.L25
 640              	.L44:
 641 011e 00BF     		.align	2
 642              	.L43:
 643 0120 0050A9AB 		.word	-1414967296
 644              		.cfi_endproc
 645              	.LFE70:
 647              		.section	.text.driveElapsedCallback,"ax",%progbits
 648              		.align	1
 649              		.global	driveElapsedCallback
 650              		.syntax unified
 651              		.thumb
 652              		.thumb_func
 654              	driveElapsedCallback:
 655              	.LVL40:
 656              	.LFB71:
 126:BSP/Src/drive.c **** 
 127:BSP/Src/drive.c **** void driveElapsedCallback(struct drive *D)
 128:BSP/Src/drive.c **** {
 657              		.loc 1 128 1 is_stmt 1 view -0
 658              		.cfi_startproc
 659              		@ args = 0, pretend = 0, frame = 0
 660              		@ frame_needed = 0, uses_anonymous_args = 0
 661              		@ link register save eliminated.
 129:BSP/Src/drive.c **** 
 130:BSP/Src/drive.c ****     //
 131:BSP/Src/drive.c ****     // int32_t delta = D->current_step_time - D->target_step_time;
 132:BSP/Src/drive.c ****     // if (delta == 0)
 133:BSP/Src/drive.c ****     //    HAL_TIM_Base_Stop_IT(D->tim);
 134:BSP/Src/drive.c ****     // if (delta > 0)
 135:BSP/Src/drive.c ****     //    D->current_step_time = D->current_step_time - D->axeleration_step;
 136:BSP/Src/drive.c ****     //    // D->current_step_time = (D->current_step_time * 90) / 100;
 137:BSP/Src/drive.c ****     // if (delta < 0)
 138:BSP/Src/drive.c ****     //    D->current_step_time = D->current_step_time + D->axeleration_step;
 139:BSP/Src/drive.c ****     //    // D->current_step_time = (D->current_step_time * 110) / 100;
 140:BSP/Src/drive.c ****     //
 141:BSP/Src/drive.c ****     //__HAL_TIM_SetAutoreload(D->tim, D->current_step_time - 1);
 142:BSP/Src/drive.c ****     //__HAL_TIM_SET_COMPARE(D->tim, D->tim_chanel, (D->current_step_time >> 1) - 1);
 143:BSP/Src/drive.c **** }...
 662              		.loc 1 143 1 view .LVU174
 663 0000 7047     		bx	lr
 664              		.cfi_endproc
 665              	.LFE71:
 667              		.text
 668              	.Letext0:
 669              		.file 2 "/home/mark/toolchains/gcc-arm-none-eabi-10.3-2021.10/arm-none-eabi/include/machine/_defau
 670              		.file 3 "/home/mark/toolchains/gcc-arm-none-eabi-10.3-2021.10/arm-none-eabi/include/sys/_stdint.h"
 671              		.file 4 "Drivers/CMSIS/Device/ST/STM32F1xx/Include/stm32f103xb.h"
 672              		.file 5 "Drivers/CMSIS/Device/ST/STM32F1xx/Include/stm32f1xx.h"
 673              		.file 6 "Drivers/STM32F1xx_HAL_Driver/Inc/stm32f1xx_hal_def.h"
 674              		.file 7 "Drivers/STM32F1xx_HAL_Driver/Inc/stm32f1xx_hal_dma.h"
 675              		.file 8 "Drivers/STM32F1xx_HAL_Driver/Inc/stm32f1xx_hal_tim.h"
 676              		.file 9 "BSP/Inc/drive.h"
ARM GAS  /tmp/ccwFPghg.s 			page 16


 677              		.file 10 "Drivers/STM32F1xx_HAL_Driver/Inc/stm32f1xx_hal_gpio.h"
ARM GAS  /tmp/ccwFPghg.s 			page 17

