ARM GAS  /tmp/ccIDVogH.s 			page 1


   1              		.cpu cortex-m3
   2              		.arch armv7-m
   3              		.fpu softvfp
   4              		.eabi_attribute 20, 1
   5              		.eabi_attribute 21, 1
   6              		.eabi_attribute 23, 3
   7              		.eabi_attribute 24, 1
   8              		.eabi_attribute 25, 1
   9              		.eabi_attribute 26, 1
  10              		.eabi_attribute 30, 1
  11              		.eabi_attribute 34, 1
  12              		.eabi_attribute 18, 4
  13              		.file	"drive.c"
  14              		.text
  15              	.Ltext0:
  16              		.cfi_sections	.debug_frame
  17              		.section	.text.drive_init,"ax",%progbits
  18              		.align	1
  19              		.global	drive_init
  20              		.syntax unified
  21              		.thumb
  22              		.thumb_func
  24              	drive_init:
  25              	.LVL0:
  26              	.LFB65:
  27              		.file 1 "BSP/Src/drive.c"
   1:BSP/Src/drive.c **** #include "drive.h"
   2:BSP/Src/drive.c **** 
   3:BSP/Src/drive.c **** void drive_init(
   4:BSP/Src/drive.c ****     struct drive *D,
   5:BSP/Src/drive.c ****     enum drv_location side,
   6:BSP/Src/drive.c ****     TIM_HandleTypeDef *tim,
   7:BSP/Src/drive.c ****     uint32_t tim_chanel,
   8:BSP/Src/drive.c ****     uint32_t ena_pin_port,
   9:BSP/Src/drive.c ****     uint32_t ena_pin,
  10:BSP/Src/drive.c ****     uint32_t dir_pin_port,
  11:BSP/Src/drive.c ****     uint32_t dir_pin)
  12:BSP/Src/drive.c **** {
  28              		.loc 1 12 1 view -0
  29              		.cfi_startproc
  30              		@ args = 16, pretend = 0, frame = 0
  31              		@ frame_needed = 0, uses_anonymous_args = 0
  32              		@ link register save eliminated.
  13:BSP/Src/drive.c ****     D->enable = false;
  33              		.loc 1 13 5 view .LVU1
  34              		.loc 1 13 15 is_stmt 0 view .LVU2
  35 0000 4FF0000C 		mov	ip, #0
  36 0004 80F800C0 		strb	ip, [r0]
  14:BSP/Src/drive.c ****     D->side = side;
  37              		.loc 1 14 5 is_stmt 1 view .LVU3
  38              		.loc 1 14 13 is_stmt 0 view .LVU4
  39 0008 4170     		strb	r1, [r0, #1]
  15:BSP/Src/drive.c ****     D->direction = forward;
  40              		.loc 1 15 5 is_stmt 1 view .LVU5
  41              		.loc 1 15 18 is_stmt 0 view .LVU6
  42 000a 80F802C0 		strb	ip, [r0, #2]
  16:BSP/Src/drive.c ****     D->speed = 0;
ARM GAS  /tmp/ccIDVogH.s 			page 2


  43              		.loc 1 16 5 is_stmt 1 view .LVU7
  44              		.loc 1 16 14 is_stmt 0 view .LVU8
  45 000e A0F804C0 		strh	ip, [r0, #4]	@ movhi
  17:BSP/Src/drive.c ****     D->tim = tim;
  46              		.loc 1 17 5 is_stmt 1 view .LVU9
  47              		.loc 1 17 12 is_stmt 0 view .LVU10
  48 0012 8260     		str	r2, [r0, #8]
  18:BSP/Src/drive.c ****     D->tim_chanel = tim_chanel;
  49              		.loc 1 18 5 is_stmt 1 view .LVU11
  50              		.loc 1 18 19 is_stmt 0 view .LVU12
  51 0014 C360     		str	r3, [r0, #12]
  19:BSP/Src/drive.c ****     D->ena_pin_port = ena_pin_port;
  52              		.loc 1 19 5 is_stmt 1 view .LVU13
  53              		.loc 1 19 21 is_stmt 0 view .LVU14
  54 0016 009B     		ldr	r3, [sp]
  55              	.LVL1:
  56              		.loc 1 19 21 view .LVU15
  57 0018 0361     		str	r3, [r0, #16]
  20:BSP/Src/drive.c ****     D->ena_pin = ena_pin;
  58              		.loc 1 20 5 is_stmt 1 view .LVU16
  59              		.loc 1 20 16 is_stmt 0 view .LVU17
  60 001a 019B     		ldr	r3, [sp, #4]
  61 001c 4361     		str	r3, [r0, #20]
  21:BSP/Src/drive.c ****     D->dir_pin_port = dir_pin_port;
  62              		.loc 1 21 5 is_stmt 1 view .LVU18
  63              		.loc 1 21 21 is_stmt 0 view .LVU19
  64 001e 029B     		ldr	r3, [sp, #8]
  65 0020 8361     		str	r3, [r0, #24]
  22:BSP/Src/drive.c ****     D->dir_pin = dir_pin;
  66              		.loc 1 22 5 is_stmt 1 view .LVU20
  67              		.loc 1 22 16 is_stmt 0 view .LVU21
  68 0022 039B     		ldr	r3, [sp, #12]
  69 0024 C361     		str	r3, [r0, #28]
  23:BSP/Src/drive.c **** }
  70              		.loc 1 23 1 view .LVU22
  71 0026 7047     		bx	lr
  72              		.cfi_endproc
  73              	.LFE65:
  75              		.section	.text.drive_on,"ax",%progbits
  76              		.align	1
  77              		.global	drive_on
  78              		.syntax unified
  79              		.thumb
  80              		.thumb_func
  82              	drive_on:
  83              	.LVL2:
  84              	.LFB66:
  24:BSP/Src/drive.c **** 
  25:BSP/Src/drive.c **** void drive_on(struct drive *D)
  26:BSP/Src/drive.c **** {
  85              		.loc 1 26 1 is_stmt 1 view -0
  86              		.cfi_startproc
  87              		@ args = 0, pretend = 0, frame = 0
  88              		@ frame_needed = 0, uses_anonymous_args = 0
  89              		.loc 1 26 1 is_stmt 0 view .LVU24
  90 0000 08B5     		push	{r3, lr}
  91              	.LCFI0:
ARM GAS  /tmp/ccIDVogH.s 			page 3


  92              		.cfi_def_cfa_offset 8
  93              		.cfi_offset 3, -8
  94              		.cfi_offset 14, -4
  27:BSP/Src/drive.c ****     D->enable = true;
  95              		.loc 1 27 5 is_stmt 1 view .LVU25
  96              		.loc 1 27 15 is_stmt 0 view .LVU26
  97 0002 0122     		movs	r2, #1
  98 0004 0270     		strb	r2, [r0]
  28:BSP/Src/drive.c ****     HAL_GPIO_WritePin(D->ena_pin_port, D->ena_pin, SET);
  99              		.loc 1 28 5 is_stmt 1 view .LVU27
 100 0006 818A     		ldrh	r1, [r0, #20]
 101 0008 0069     		ldr	r0, [r0, #16]
 102              	.LVL3:
 103              		.loc 1 28 5 is_stmt 0 view .LVU28
 104 000a FFF7FEFF 		bl	HAL_GPIO_WritePin
 105              	.LVL4:
  29:BSP/Src/drive.c ****     // HAL_TIM_PWM_Start(D->tim, D->tim_chanel);
  30:BSP/Src/drive.c **** }
 106              		.loc 1 30 1 view .LVU29
 107 000e 08BD     		pop	{r3, pc}
 108              		.cfi_endproc
 109              	.LFE66:
 111              		.section	.text.drive_off,"ax",%progbits
 112              		.align	1
 113              		.global	drive_off
 114              		.syntax unified
 115              		.thumb
 116              		.thumb_func
 118              	drive_off:
 119              	.LVL5:
 120              	.LFB67:
  31:BSP/Src/drive.c **** 
  32:BSP/Src/drive.c **** void drive_off(struct drive *D)
  33:BSP/Src/drive.c **** {
 121              		.loc 1 33 1 is_stmt 1 view -0
 122              		.cfi_startproc
 123              		@ args = 0, pretend = 0, frame = 0
 124              		@ frame_needed = 0, uses_anonymous_args = 0
 125              		.loc 1 33 1 is_stmt 0 view .LVU31
 126 0000 10B5     		push	{r4, lr}
 127              	.LCFI1:
 128              		.cfi_def_cfa_offset 8
 129              		.cfi_offset 4, -8
 130              		.cfi_offset 14, -4
 131 0002 0446     		mov	r4, r0
  34:BSP/Src/drive.c ****     D->enable = false;
 132              		.loc 1 34 5 is_stmt 1 view .LVU32
 133              		.loc 1 34 15 is_stmt 0 view .LVU33
 134 0004 0022     		movs	r2, #0
 135 0006 0270     		strb	r2, [r0]
  35:BSP/Src/drive.c ****     HAL_GPIO_WritePin(D->ena_pin_port, D->ena_pin, RESET);
 136              		.loc 1 35 5 is_stmt 1 view .LVU34
 137 0008 818A     		ldrh	r1, [r0, #20]
 138 000a 0069     		ldr	r0, [r0, #16]
 139              	.LVL6:
 140              		.loc 1 35 5 is_stmt 0 view .LVU35
 141 000c FFF7FEFF 		bl	HAL_GPIO_WritePin
ARM GAS  /tmp/ccIDVogH.s 			page 4


 142              	.LVL7:
  36:BSP/Src/drive.c ****     HAL_TIM_PWM_Stop(D->tim, D->tim_chanel);
 143              		.loc 1 36 5 is_stmt 1 view .LVU36
 144 0010 E168     		ldr	r1, [r4, #12]
 145 0012 A068     		ldr	r0, [r4, #8]
 146 0014 FFF7FEFF 		bl	HAL_TIM_PWM_Stop
 147              	.LVL8:
  37:BSP/Src/drive.c **** }
 148              		.loc 1 37 1 is_stmt 0 view .LVU37
 149 0018 10BD     		pop	{r4, pc}
 150              		.loc 1 37 1 view .LVU38
 151              		.cfi_endproc
 152              	.LFE67:
 154              		.section	.text.drive_set_vel,"ax",%progbits
 155              		.align	1
 156              		.global	drive_set_vel
 157              		.syntax unified
 158              		.thumb
 159              		.thumb_func
 161              	drive_set_vel:
 162              	.LVL9:
 163              	.LFB68:
  38:BSP/Src/drive.c **** 
  39:BSP/Src/drive.c **** bool drive_set_vel(struct drive *D, int32_t vel)
  40:BSP/Src/drive.c **** {
 164              		.loc 1 40 1 is_stmt 1 view -0
 165              		.cfi_startproc
 166              		@ args = 0, pretend = 0, frame = 0
 167              		@ frame_needed = 0, uses_anonymous_args = 0
 168              		.loc 1 40 1 is_stmt 0 view .LVU40
 169 0000 70B5     		push	{r4, r5, r6, lr}
 170              	.LCFI2:
 171              		.cfi_def_cfa_offset 16
 172              		.cfi_offset 4, -16
 173              		.cfi_offset 5, -12
 174              		.cfi_offset 6, -8
 175              		.cfi_offset 14, -4
  41:BSP/Src/drive.c ****     if (D->enable == false)
 176              		.loc 1 41 5 is_stmt 1 view .LVU41
 177              		.loc 1 41 10 is_stmt 0 view .LVU42
 178 0002 0678     		ldrb	r6, [r0]	@ zero_extendqisi2
 179              		.loc 1 41 8 view .LVU43
 180 0004 002E     		cmp	r6, #0
 181 0006 31D0     		beq	.L6
 182 0008 0446     		mov	r4, r0
 183 000a 0D46     		mov	r5, r1
  42:BSP/Src/drive.c ****     {
  43:BSP/Src/drive.c ****         return false;
  44:BSP/Src/drive.c ****     }
  45:BSP/Src/drive.c ****     else
  46:BSP/Src/drive.c ****     {
  47:BSP/Src/drive.c ****         // if ((vel < 1 && vel > 400) || (vel > -1 && vel < -400))
  48:BSP/Src/drive.c ****         if ((vel < 150) && (vel > -150))
 184              		.loc 1 48 9 is_stmt 1 view .LVU44
 185              		.loc 1 48 25 is_stmt 0 view .LVU45
 186 000c 01F19503 		add	r3, r1, #149
 187              		.loc 1 48 12 view .LVU46
ARM GAS  /tmp/ccIDVogH.s 			page 5


 188 0010 B3F5957F 		cmp	r3, #298
 189 0014 2CD9     		bls	.L16
  49:BSP/Src/drive.c ****         {
  50:BSP/Src/drive.c ****             HAL_TIM_PWM_Stop(D->tim, D->tim_chanel);
  51:BSP/Src/drive.c ****             return;
  52:BSP/Src/drive.c ****         }
  53:BSP/Src/drive.c ****         if (vel < 0)
 190              		.loc 1 53 9 is_stmt 1 view .LVU47
 191              		.loc 1 53 12 is_stmt 0 view .LVU48
 192 0016 0029     		cmp	r1, #0
 193 0018 2FDB     		blt	.L17
  54:BSP/Src/drive.c ****         {
  55:BSP/Src/drive.c ****             HAL_GPIO_WritePin(D->dir_pin_port, D->dir_pin, PIN_OFF);
  56:BSP/Src/drive.c ****             D->direction = backward;
  57:BSP/Src/drive.c ****             vel = vel * (-1);
  58:BSP/Src/drive.c ****         }
  59:BSP/Src/drive.c ****         else
  60:BSP/Src/drive.c ****         {
  61:BSP/Src/drive.c ****             D->direction = forward;
 194              		.loc 1 61 13 is_stmt 1 view .LVU49
 195              		.loc 1 61 26 is_stmt 0 view .LVU50
 196 001a 0022     		movs	r2, #0
 197 001c 8270     		strb	r2, [r0, #2]
  62:BSP/Src/drive.c ****             HAL_GPIO_WritePin(D->dir_pin_port, D->dir_pin, PIN_ON);
 198              		.loc 1 62 13 is_stmt 1 view .LVU51
 199 001e 818B     		ldrh	r1, [r0, #28]
 200              	.LVL10:
 201              		.loc 1 62 13 is_stmt 0 view .LVU52
 202 0020 8069     		ldr	r0, [r0, #24]
 203              	.LVL11:
 204              		.loc 1 62 13 view .LVU53
 205 0022 FFF7FEFF 		bl	HAL_GPIO_WritePin
 206              	.LVL12:
 207              	.L10:
  63:BSP/Src/drive.c ****         }
  64:BSP/Src/drive.c **** 
  65:BSP/Src/drive.c ****         D->speed = 48000000 / (((vel) * 6400) / 60);
 208              		.loc 1 65 9 is_stmt 1 view .LVU54
 209              		.loc 1 65 39 is_stmt 0 view .LVU55
 210 0026 4FF4C851 		mov	r1, #6400
 211 002a 01FB05F5 		mul	r5, r1, r5
 212              	.LVL13:
 213              		.loc 1 65 47 view .LVU56
 214 002e 224B     		ldr	r3, .L20
 215 0030 83FB0523 		smull	r2, r3, r3, r5
 216 0034 2B44     		add	r3, r3, r5
 217 0036 ED17     		asrs	r5, r5, #31
 218 0038 C5EB6315 		rsb	r5, r5, r3, asr #5
 219              		.loc 1 65 29 view .LVU57
 220 003c 1F4B     		ldr	r3, .L20+4
 221 003e 93FBF5F5 		sdiv	r5, r3, r5
 222              		.loc 1 65 18 view .LVU58
 223 0042 ADB2     		uxth	r5, r5
 224 0044 A580     		strh	r5, [r4, #4]	@ movhi
  66:BSP/Src/drive.c ****         __HAL_TIM_SetAutoreload(D->tim, D->speed - 1);
 225              		.loc 1 66 9 is_stmt 1 view .LVU59
 226              		.loc 1 66 9 view .LVU60
ARM GAS  /tmp/ccIDVogH.s 			page 6


 227 0046 A368     		ldr	r3, [r4, #8]
 228 0048 1B68     		ldr	r3, [r3]
 229 004a 013D     		subs	r5, r5, #1
 230 004c DD62     		str	r5, [r3, #44]
 231              		.loc 1 66 9 view .LVU61
 232 004e A388     		ldrh	r3, [r4, #4]
 233 0050 A268     		ldr	r2, [r4, #8]
 234 0052 013B     		subs	r3, r3, #1
 235 0054 D360     		str	r3, [r2, #12]
 236              		.loc 1 66 9 view .LVU62
  67:BSP/Src/drive.c ****         __HAL_TIM_SET_COMPARE(D->tim, D->tim_chanel, D->speed >> 1); // /2
 237              		.loc 1 67 9 view .LVU63
 238 0056 E368     		ldr	r3, [r4, #12]
 239 0058 C3B9     		cbnz	r3, .L11
 240              		.loc 1 67 9 is_stmt 0 discriminator 1 view .LVU64
 241 005a A388     		ldrh	r3, [r4, #4]
 242 005c A268     		ldr	r2, [r4, #8]
 243 005e 1268     		ldr	r2, [r2]
 244 0060 5B08     		lsrs	r3, r3, #1
 245 0062 5363     		str	r3, [r2, #52]
 246              	.L12:
  68:BSP/Src/drive.c ****         HAL_TIM_PWM_Start(D->tim, D->tim_chanel);
 247              		.loc 1 68 9 is_stmt 1 view .LVU65
 248 0064 E168     		ldr	r1, [r4, #12]
 249 0066 A068     		ldr	r0, [r4, #8]
 250 0068 FFF7FEFF 		bl	HAL_TIM_PWM_Start
 251              	.LVL14:
  69:BSP/Src/drive.c **** 
  70:BSP/Src/drive.c ****         return true;
 252              		.loc 1 70 9 view .LVU66
 253              	.L6:
  71:BSP/Src/drive.c ****     }
  72:BSP/Src/drive.c **** }...
 254              		.loc 1 72 1 is_stmt 0 view .LVU67
 255 006c 3046     		mov	r0, r6
 256 006e 70BD     		pop	{r4, r5, r6, pc}
 257              	.LVL15:
 258              	.L16:
  50:BSP/Src/drive.c ****             HAL_TIM_PWM_Stop(D->tim, D->tim_chanel);
 259              		.loc 1 50 13 is_stmt 1 view .LVU68
 260 0070 C168     		ldr	r1, [r0, #12]
 261              	.LVL16:
  50:BSP/Src/drive.c ****             HAL_TIM_PWM_Stop(D->tim, D->tim_chanel);
 262              		.loc 1 50 13 is_stmt 0 view .LVU69
 263 0072 8068     		ldr	r0, [r0, #8]
 264              	.LVL17:
  50:BSP/Src/drive.c ****             HAL_TIM_PWM_Stop(D->tim, D->tim_chanel);
 265              		.loc 1 50 13 view .LVU70
 266 0074 FFF7FEFF 		bl	HAL_TIM_PWM_Stop
 267              	.LVL18:
  51:BSP/Src/drive.c ****             return;
 268              		.loc 1 51 13 is_stmt 1 view .LVU71
 269 0078 F8E7     		b	.L6
 270              	.LVL19:
 271              	.L17:
  55:BSP/Src/drive.c ****             HAL_GPIO_WritePin(D->dir_pin_port, D->dir_pin, PIN_OFF);
 272              		.loc 1 55 13 view .LVU72
ARM GAS  /tmp/ccIDVogH.s 			page 7


 273 007a 0122     		movs	r2, #1
 274 007c 818B     		ldrh	r1, [r0, #28]
 275              	.LVL20:
  55:BSP/Src/drive.c ****             HAL_GPIO_WritePin(D->dir_pin_port, D->dir_pin, PIN_OFF);
 276              		.loc 1 55 13 is_stmt 0 view .LVU73
 277 007e 8069     		ldr	r0, [r0, #24]
 278              	.LVL21:
  55:BSP/Src/drive.c ****             HAL_GPIO_WritePin(D->dir_pin_port, D->dir_pin, PIN_OFF);
 279              		.loc 1 55 13 view .LVU74
 280 0080 FFF7FEFF 		bl	HAL_GPIO_WritePin
 281              	.LVL22:
  56:BSP/Src/drive.c ****             D->direction = backward;
 282              		.loc 1 56 13 is_stmt 1 view .LVU75
  56:BSP/Src/drive.c ****             D->direction = backward;
 283              		.loc 1 56 26 is_stmt 0 view .LVU76
 284 0084 0123     		movs	r3, #1
 285 0086 A370     		strb	r3, [r4, #2]
  57:BSP/Src/drive.c ****             vel = vel * (-1);
 286              		.loc 1 57 13 is_stmt 1 view .LVU77
  57:BSP/Src/drive.c ****             vel = vel * (-1);
 287              		.loc 1 57 17 is_stmt 0 view .LVU78
 288 0088 6D42     		rsbs	r5, r5, #0
 289              	.LVL23:
  57:BSP/Src/drive.c ****             vel = vel * (-1);
 290              		.loc 1 57 17 view .LVU79
 291 008a CCE7     		b	.L10
 292              	.LVL24:
 293              	.L11:
  67:BSP/Src/drive.c ****         __HAL_TIM_SET_COMPARE(D->tim, D->tim_chanel, D->speed >> 1); // /2
 294              		.loc 1 67 9 discriminator 2 view .LVU80
 295 008c 042B     		cmp	r3, #4
 296 008e 07D0     		beq	.L18
  67:BSP/Src/drive.c ****         __HAL_TIM_SET_COMPARE(D->tim, D->tim_chanel, D->speed >> 1); // /2
 297              		.loc 1 67 9 discriminator 4 view .LVU81
 298 0090 082B     		cmp	r3, #8
 299 0092 0BD0     		beq	.L19
  67:BSP/Src/drive.c ****         __HAL_TIM_SET_COMPARE(D->tim, D->tim_chanel, D->speed >> 1); // /2
 300              		.loc 1 67 9 discriminator 7 view .LVU82
 301 0094 A388     		ldrh	r3, [r4, #4]
 302 0096 A268     		ldr	r2, [r4, #8]
 303 0098 1268     		ldr	r2, [r2]
 304 009a 5B08     		lsrs	r3, r3, #1
 305 009c 1364     		str	r3, [r2, #64]
 306 009e E1E7     		b	.L12
 307              	.L18:
  67:BSP/Src/drive.c ****         __HAL_TIM_SET_COMPARE(D->tim, D->tim_chanel, D->speed >> 1); // /2
 308              		.loc 1 67 9 discriminator 3 view .LVU83
 309 00a0 A388     		ldrh	r3, [r4, #4]
 310 00a2 A268     		ldr	r2, [r4, #8]
 311 00a4 1268     		ldr	r2, [r2]
 312 00a6 5B08     		lsrs	r3, r3, #1
 313 00a8 9363     		str	r3, [r2, #56]
 314 00aa DBE7     		b	.L12
 315              	.L19:
  67:BSP/Src/drive.c ****         __HAL_TIM_SET_COMPARE(D->tim, D->tim_chanel, D->speed >> 1); // /2
 316              		.loc 1 67 9 discriminator 6 view .LVU84
 317 00ac A388     		ldrh	r3, [r4, #4]
ARM GAS  /tmp/ccIDVogH.s 			page 8


 318 00ae A268     		ldr	r2, [r4, #8]
 319 00b0 1268     		ldr	r2, [r2]
 320 00b2 5B08     		lsrs	r3, r3, #1
 321 00b4 D363     		str	r3, [r2, #60]
 322 00b6 D5E7     		b	.L12
 323              	.L21:
 324              		.align	2
 325              	.L20:
 326 00b8 89888888 		.word	-2004318071
 327 00bc 006CDC02 		.word	48000000
 328              		.cfi_endproc
 329              	.LFE68:
 331              		.text
 332              	.Letext0:
 333              		.file 2 "/home/mark/toolchains/gcc-arm-none-eabi-10.3-2021.10/arm-none-eabi/include/machine/_defau
 334              		.file 3 "/home/mark/toolchains/gcc-arm-none-eabi-10.3-2021.10/arm-none-eabi/include/sys/_stdint.h"
 335              		.file 4 "Drivers/CMSIS/Device/ST/STM32F1xx/Include/stm32f103xb.h"
 336              		.file 5 "Drivers/CMSIS/Device/ST/STM32F1xx/Include/stm32f1xx.h"
 337              		.file 6 "Drivers/STM32F1xx_HAL_Driver/Inc/stm32f1xx_hal_def.h"
 338              		.file 7 "Drivers/STM32F1xx_HAL_Driver/Inc/stm32f1xx_hal_dma.h"
 339              		.file 8 "Drivers/STM32F1xx_HAL_Driver/Inc/stm32f1xx_hal_tim.h"
 340              		.file 9 "BSP/Inc/drive.h"
 341              		.file 10 "Drivers/STM32F1xx_HAL_Driver/Inc/stm32f1xx_hal_gpio.h"
ARM GAS  /tmp/ccIDVogH.s 			page 9


DEFINED SYMBOLS
                            *ABS*:0000000000000000 drive.c
     /tmp/ccIDVogH.s:18     .text.drive_init:0000000000000000 $t
     /tmp/ccIDVogH.s:24     .text.drive_init:0000000000000000 drive_init
     /tmp/ccIDVogH.s:76     .text.drive_on:0000000000000000 $t
     /tmp/ccIDVogH.s:82     .text.drive_on:0000000000000000 drive_on
     /tmp/ccIDVogH.s:112    .text.drive_off:0000000000000000 $t
     /tmp/ccIDVogH.s:118    .text.drive_off:0000000000000000 drive_off
     /tmp/ccIDVogH.s:155    .text.drive_set_vel:0000000000000000 $t
     /tmp/ccIDVogH.s:161    .text.drive_set_vel:0000000000000000 drive_set_vel
     /tmp/ccIDVogH.s:326    .text.drive_set_vel:00000000000000b8 $d

UNDEFINED SYMBOLS
HAL_GPIO_WritePin
HAL_TIM_PWM_Stop
HAL_TIM_PWM_Start
